(dp0
(S'0101110000'
p1
I1
tp2
F368.24323478820725
s(S'0000000110'
p3
I2
tp4
F1855.900115807011
s(S'0222211110'
p5
I1
tp6
I-10
s(S'1201111100'
p7
I2
tp8
F87.90669210920952
s(S'0001001100'
p9
I2
tp10
F7.5
s(S'0111101010'
p11
I0
tp12
F149.87982949436412
s(S'1100000200'
p13
I1
tp14
I-10
s(S'0111111220'
p15
I2
tp16
F0.543665047743872
s(S'1100012000'
p17
I1
tp18
F-3.2232225303640076
s(S'0000011100'
p19
I2
tp20
F256.61115688146344
s(S'2210001110'
p21
I2
tp22
F-12.1
s(S'1110022000'
p23
I1
tp24
I-10
s(S'1111010100'
p25
I2
tp26
F130.0399163177591
s(S'0210011110'
p27
I1
tp28
I4
s(S'0001110000'
p29
I2
tp30
F230.08265508279337
s(S'0022222210'
p31
I1
tp32
F238.56362841095103
s(S'0012222110'
p33
I2
tp34
I-10
s(S'0022222210'
p35
I2
tp36
F-10.189
s(S'0222222110'
p37
I2
tp38
F-12.1
s(S'2222222100'
p39
I1
tp40
I-10
s(S'0110010000'
p41
I1
tp42
I7
s(S'0000000000'
p43
I2
tp44
F17.12619638370115
s(S'2222211110'
p45
I1
tp46
F1583.1280576096278
s(S'0022111110'
p47
I2
tp48
I-10
s(S'0002111110'
p49
I2
tp50
F15020.214223533916
s(S'2200000110'
p51
I0
tp52
F-17.262845799999997
s(S'1000011000'
p53
I0
tp54
F273.5297549927104
s(S'0001101100'
p55
I2
tp56
F190.33526978450294
s(S'2000001010'
p57
I2
tp58
I-10
s(S'0000200010'
p59
I1
tp60
I-10
s(S'1110012000'
p61
I0
tp62
I-10
s(S'1001110000'
p63
I0
tp64
F244.6590317555159
s(S'2222111100'
p65
I0
tp66
F19.319213221774167
s(S'1110011000'
p67
I1
tp68
F1076.6862013178068
s(S'0000000220'
p69
I2
tp70
I-10
s(S'0022222220'
p71
I2
tp72
F1970.128496520323
s(S'0111000000'
p73
I0
tp74
F3370.5715653824122
s(S'2100001110'
p75
I1
tp76
F-22.592494358535035
s(S'1101100010'
p77
I1
tp78
I6
s(S'1101011110'
p79
I1
tp80
I-10
s(S'0022222110'
p81
I0
tp82
F-12.1
s(S'0111100100'
p83
I1
tp84
I-10
s(S'0010000110'
p85
I2
tp86
F-12.849699999999999
s(S'0001101100'
p87
I0
tp88
F-3.5107888881923963
s(S'1100000000'
p89
I1
tp90
F6024.372753629448
s(S'0110110110'
p91
I1
tp92
F84.1763110020469
s(S'1120011110'
p93
I2
tp94
I-10
s(S'0000211110'
p95
I1
tp96
I-10
s(S'0011111110'
p97
I2
tp98
F-11.653799742719926
s(S'0200001110'
p99
I0
tp100
F-19.011419707593053
s(S'1111002100'
p101
I0
tp102
I-10
s(S'0002100000'
p103
I2
tp104
I-10
s(S'2221000000'
p105
I0
tp106
I-10
s(S'2220000010'
p107
I0
tp108
F-12.027520125613613
s(S'0102221110'
p109
I1
tp110
I-10
s(S'1001110010'
p111
I0
tp112
I41
s(S'1111110010'
p113
I0
tp114
F172.0770932020836
s(S'2100000020'
p115
I0
tp116
I-10
s(S'1121111010'
p117
I0
tp118
I100
s(S'0111120000'
p119
I0
tp120
F7.301213356414762
s(S'1100100000'
p121
I0
tp122
F152.34592222078533
s(S'0000002220'
p123
I1
tp124
I-10
s(S'0000022220'
p125
I0
tp126
F13.165386343797682
s(S'2210000110'
p127
I2
tp128
F370.76890186631414
s(S'1000000200'
p129
I1
tp130
I-10
s(S'0012111110'
p131
I2
tp132
I-10
s(S'0001202210'
p133
I2
tp134
I-10
s(S'0000100110'
p135
I1
tp136
F863.0935374528169
s(S'0011000100'
p137
I1
tp138
F13.0
s(S'0011110110'
p139
I1
tp140
F112.93801581512194
s(S'1001111010'
p141
I1
tp142
F262.8338091235983
s(S'0002200000'
p143
I2
tp144
F-12.1
s(S'2222222220'
p145
I1
tp146
I-10
s(S'0010011110'
p147
I0
tp148
F-12.1
s(S'1111111100'
p149
I2
tp150
I-10
s(S'0110111000'
p151
I2
tp152
F252.95103347162134
s(S'0222221110'
p153
I1
tp154
F-14.011
s(S'0111100000'
p155
I1
tp156
F544.1114463692162
s(S'1100110110'
p157
I2
tp158
I-10
s(S'0022200000'
p159
I0
tp160
F-10.0
s(S'0022200000'
p161
I1
tp162
I-10
s(S'1111100000'
p163
I1
tp164
F138.12737426658236
s(S'0000200000'
p165
I2
tp166
F-10.0
s(S'2111110010'
p167
I1
tp168
F8.0
s(S'1110000100'
p169
I1
tp170
I-10
s(S'0011100110'
p171
I2
tp172
F124.1318023924846
s(S'0101100000'
p173
I1
tp174
F-0.5208412781883851
s(S'1120011110'
p175
I1
tp176
F3949.509540070476
s(S'0100011010'
p177
I1
tp178
F25.241195893710763
s(S'2222221110'
p179
I0
tp180
I-10
s(S'2100011100'
p181
I0
tp182
F191.73955852416447
s(S'1111121110'
p183
I1
tp184
I0
s(S'1010111010'
p185
I2
tp186
I6
s(S'2220000110'
p187
I1
tp188
F-9.115617489426757
s(S'2222000000'
p189
I2
tp190
F-15.84409
s(S'1000002000'
p191
I0
tp192
I-10
s(S'2211111110'
p193
I0
tp194
I-10
s(S'1111121110'
p195
I2
tp196
F0.0
s(S'1111110110'
p197
I0
tp198
F144.18375719527242
s(S'1111000200'
p199
I2
tp200
I76290
s(S'1000000000'
p201
I0
tp202
F10728.16006852984
s(S'1222221110'
p203
I2
tp204
F-12.1
s(S'0111112220'
p205
I0
tp206
I0
s(S'1222222000'
p207
I0
tp208
I1050
s(S'0022111000'
p209
I1
tp210
I-10
s(S'0000101110'
p211
I1
tp212
F-11.469999999999999
s(S'2211111010'
p213
I2
tp214
F89.62610684287431
s(S'1011111120'
p215
I1
tp216
I5
s(S'0011101100'
p217
I0
tp218
F159.93031636408946
s(S'0100001110'
p219
I2
tp220
I-10
s(S'0012000010'
p221
I1
tp222
F373.64899999999994
s(S'1101110100'
p223
I0
tp224
I13
s(S'0001101100'
p225
I1
tp226
I-10
s(S'1111111000'
p227
I2
tp228
F-1.1799999999999997
s(S'0000001110'
p229
I1
tp230
F-14.011
s(S'1000220000'
p231
I1
tp232
I-10
s(S'0111110110'
p233
I0
tp234
F247.33454855689524
s(S'0001110010'
p235
I1
tp236
F193.18822581475683
s(S'1200011110'
p237
I2
tp238
I-10
s(S'2100000020'
p239
I1
tp240
I-10
s(S'1100021000'
p241
I0
tp242
I-10
s(S'0100000010'
p243
I1
tp244
F12929.335884877255
s(S'2220000100'
p245
I0
tp246
I-10
s(S'1001101110'
p247
I1
tp248
F10.88665
s(S'1100111100'
p249
I1
tp250
F143.5924689562341
s(S'1111101100'
p251
I2
tp252
F95.00758175647492
s(S'0200000110'
p253
I2
tp254
F-12.1
s(S'0001200000'
p255
I2
tp256
F-12.1
s(S'1100021000'
p257
I2
tp258
I-10
s(S'0020001110'
p259
I1
tp260
I-10
s(S'1002000010'
p261
I0
tp262
I-10
s(S'0022222110'
p263
I2
tp264
I-10
s(S'1112222220'
p265
I0
tp266
I-10
s(S'0001101110'
p267
I1
tp268
F242.74212414513948
s(S'0000100010'
p269
I2
tp270
I-10
s(S'0111120010'
p271
I0
tp272
F4.610853226670033
s(S'2000000010'
p273
I0
tp274
I-10
s(S'0001000000'
p275
I2
tp276
F7640.814312040155
s(S'0122000110'
p277
I1
tp278
F-12.1
s(S'0000222110'
p279
I1
tp280
I-10
s(S'1221111100'
p281
I2
tp282
F8.7
s(S'1000001100'
p283
I2
tp284
I-10
s(S'0010101100'
p285
I2
tp286
I7
s(S'2222221000'
p287
I0
tp288
F-10.0
s(S'0110111120'
p289
I0
tp290
I34
s(S'0000001010'
p291
I0
tp292
F205.8521441527501
s(S'2000011100'
p293
I1
tp294
I2
s(S'1100101100'
p295
I1
tp296
F69.77940181953345
s(S'0120000110'
p297
I2
tp298
F-14.011
s(S'0010100000'
p299
I2
tp300
F141.5125060978236
s(S'0210001110'
p301
I2
tp302
F-12.380476
s(S'0001001010'
p303
I2
tp304
I22
s(S'2201000000'
p305
I1
tp306
F25.834706545263053
s(S'0022210000'
p307
I1
tp308
I-10
s(S'0101000000'
p309
I1
tp310
F656.4432608418485
s(S'0122200000'
p311
I0
tp312
I-10
s(S'1120001110'
p313
I1
tp314
I-10
s(S'1000000010'
p315
I1
tp316
F357.75118959428346
s(S'0022001110'
p317
I0
tp318
I-10
s(S'0010111000'
p319
I2
tp320
F490.27506640679337
s(S'0222000000'
p321
I0
tp322
I-10
s(S'2111000000'
p323
I1
tp324
I-10
s(S'2100011110'
p325
I1
tp326
F4814.249098617673
s(S'1100010110'
p327
I2
tp328
I6
s(S'0110111100'
p329
I1
tp330
F101.9531860017133
s(S'0020001110'
p331
I2
tp332
F3502.2655233047053
s(S'1110000010'
p333
I0
tp334
F16901.445170686373
s(S'0022110000'
p335
I1
tp336
I-10
s(S'0001011010'
p337
I1
tp338
I7
s(S'1010000000'
p339
I2
tp340
I-10
s(S'0000020000'
p341
I1
tp342
F649.298837226069
s(S'1122000000'
p343
I2
tp344
I-10
s(S'0201111010'
p345
I2
tp346
F34.584265225898534
s(S'0010000100'
p347
I0
tp348
I34
s(S'1222211110'
p349
I0
tp350
F812.7651070896621
s(S'0200000010'
p351
I1
tp352
F1119.480729943805
s(S'0111010010'
p353
I0
tp354
I15
s(S'0122111110'
p355
I1
tp356
I-10
s(S'1000111110'
p357
I2
tp358
F135.35982382763152
s(S'1220001110'
p359
I1
tp360
F3529.614501259384
s(S'0220000110'
p361
I2
tp362
F-14.76657899677711
s(S'0120011110'
p363
I0
tp364
F3540.711486134776
s(S'1101110010'
p365
I1
tp366
F32.49974161237243
s(S'1110110000'
p367
I1
tp368
F148.47708605114084
s(S'1111002000'
p369
I1
tp370
I-10
s(S'0110101110'
p371
I0
tp372
F145.7753798149374
s(S'1101011000'
p373
I2
tp374
I5
s(S'0111111110'
p375
I2
tp376
F-12.1
s(S'0010221110'
p377
I1
tp378
I-10
s(S'0111100110'
p379
I0
tp380
F123.96642669318891
s(S'1100111000'
p381
I2
tp382
F177.62847393130087
s(S'0111100010'
p383
I1
tp384
F43.352393912154085
s(S'1010000010'
p385
I2
tp386
I-10
s(S'0010001110'
p387
I2
tp388
F181.4494070682846
s(S'1011101110'
p389
I0
tp390
F116.59695951347967
s(S'0220001110'
p391
I1
tp392
F311.80966169096916
s(S'1111001200'
p393
I2
tp394
F2.17231
s(S'0200001110'
p395
I2
tp396
F-19.312413417160222
s(S'0111011200'
p397
I1
tp398
F1.2000000000000002
s(S'0001000110'
p399
I2
tp400
I-10
s(S'0000000000'
p401
I0
tp402
F32075.78986448736
s(S'0010001100'
p403
I1
tp404
F46.438039489548956
s(S'2200000110'
p405
I2
tp406
F3158.0010953243413
s(S'0000120110'
p407
I2
tp408
I-10
s(S'1000011110'
p409
I1
tp410
F-21.308696042583815
s(S'0000222220'
p411
I0
tp412
F-15.102737101
s(S'1011111000'
p413
I0
tp414
F105.0484796690324
s(S'0000202210'
p415
I2
tp416
I-10
s(S'1110000000'
p417
I1
tp418
F-12.372698153447214
s(S'0000110000'
p419
I1
tp420
I-10
s(S'0021000110'
p421
I1
tp422
I-10
s(S'0101111110'
p423
I2
tp424
I-10
s(S'0000220000'
p425
I1
tp426
F-12.1
s(S'0020000110'
p427
I0
tp428
I-10
s(S'0111001110'
p429
I0
tp430
F129.1220083031241
s(S'0111001120'
p431
I2
tp432
F19.640791366782835
s(S'1100101110'
p433
I0
tp434
F98.25811046824701
s(S'2211000110'
p435
I1
tp436
I-10
s(S'0002000000'
p437
I0
tp438
I-10
s(S'0111120000'
p439
I2
tp440
I0
s(S'0020011110'
p441
I2
tp442
I-10
s(S'0011001110'
p443
I1
tp444
I-10
s(S'0221000000'
p445
I2
tp446
F3.725758598579249
s(S'1000010000'
p447
I0
tp448
I-10
s(S'0111112210'
p449
I2
tp450
I0
s(S'0222222220'
p451
I1
tp452
F-14.011
s(S'0200000000'
p453
I1
tp454
I-10
s(S'0222222110'
p455
I1
tp456
F172.75441859728755
s(S'0001011110'
p457
I1
tp458
F203.43679059312362
s(S'1100000010'
p459
I0
tp460
I-10
s(S'0000001000'
p461
I1
tp462
I-65
s(S'2220000010'
p463
I2
tp464
F657.3496030528263
s(S'1111101000'
p465
I2
tp466
I-10
s(S'2222222200'
p467
I1
tp468
I-10
s(S'0222000000'
p469
I2
tp470
I-10
s(S'1110111100'
p471
I2
tp472
F176.48267093466436
s(S'1110111010'
p473
I1
tp474
F398.062987699207
s(S'1100100000'
p475
I2
tp476
I-10
s(S'1102200000'
p477
I0
tp478
I-10
s(S'0110000110'
p479
I1
tp480
F-14.011
s(S'0011101010'
p481
I2
tp482
F14.268448689567172
s(S'0111110010'
p483
I1
tp484
F111.24486215509559
s(S'1002210000'
p485
I1
tp486
I-10
s(S'1002000000'
p487
I1
tp488
I-10
s(S'2001000000'
p489
I0
tp490
I-10
s(S'1110000100'
p491
I0
tp492
I-10
s(S'0002200000'
p493
I0
tp494
F84.63297683754568
s(S'0011011000'
p495
I1
tp496
F272.47103402493644
s(S'1110010100'
p497
I1
tp498
F72.596850904737
s(S'1111111100'
p499
I0
tp500
F376.5913683870738
s(S'0222222210'
p501
I2
tp502
F1270.5192260990264
s(S'0011200000'
p503
I2
tp504
I-10
s(S'0000100000'
p505
I1
tp506
F4215.968815320687
s(S'0111111200'
p507
I1
tp508
F5.7
s(S'0220001010'
p509
I1
tp510
I-10
s(S'0000011110'
p511
I1
tp512
F-23.915115186669375
s(S'0100100000'
p513
I1
tp514
F25.25937405059752
s(S'0112000110'
p515
I1
tp516
F-11.885819650856579
s(S'0100111100'
p517
I0
tp518
F163.653164341559
s(S'1000100000'
p519
I1
tp520
F-8.2143
s(S'2222221110'
p521
I2
tp522
I-10
s(S'1201000000'
p523
I2
tp524
I-10
s(S'1111010000'
p525
I0
tp526
F150.19916829466598
s(S'1101111000'
p527
I0
tp528
F107.77168806632407
s(S'2222000000'
p529
I0
tp530
F-14.011
s(S'1000002000'
p531
I2
tp532
I-10
s(S'0111122000'
p533
I1
tp534
I0
s(S'1011110000'
p535
I1
tp536
F189.63344518324845
s(S'1222000000'
p537
I1
tp538
F1907.8065653888284
s(S'1222221110'
p539
I0
tp540
F3411.811194871507
s(S'0221111110'
p541
I0
tp542
I-10
s(S'2211001110'
p543
I2
tp544
I-10
s(S'0111001200'
p545
I2
tp546
F35.604220098323445
s(S'0222100000'
p547
I1
tp548
I7890
s(S'1000111000'
p549
I1
tp550
F68.54847419685075
s(S'0000000010'
p551
I1
tp552
F3625.6409236391883
s(S'0000010000'
p553
I0
tp554
F7881.436082360465
s(S'1111000010'
p555
I1
tp556
F99.38715265276497
s(S'0121111110'
p557
I0
tp558
I-10
s(S'2222111110'
p559
I1
tp560
F-14.0838091
s(S'2211001110'
p561
I0
tp562
I-10
s(S'0100110000'
p563
I2
tp564
F227.357588555986
s(S'1010111100'
p565
I0
tp566
F83.04003389873675
s(S'0111112000'
p567
I1
tp568
F3.5
s(S'0002222110'
p569
I0
tp570
I-10
s(S'0000110110'
p571
I0
tp572
F361.4067390332852
s(S'2211100000'
p573
I2
tp574
I-10
s(S'0111120010'
p575
I1
tp576
I0
s(S'0022100000'
p577
I2
tp578
I-10
s(S'0011001100'
p579
I0
tp580
F184.02227689525773
s(S'0010010010'
p581
I1
tp582
I10
s(S'2200001110'
p583
I0
tp584
F10379.194684254186
s(S'1100111010'
p585
I1
tp586
F330.3888453460046
s(S'1010100000'
p587
I1
tp588
F90.93138791043243
s(S'0110110000'
p589
I0
tp590
F983.6779480089616
s(S'1222222220'
p591
I0
tp592
I-10
s(S'1110012000'
p593
I1
tp594
F4.016005972318448
s(S'0000100110'
p595
I0
tp596
F-10.804587944927375
s(S'1110111000'
p597
I0
tp598
F139.6636507472245
s(S'1200001110'
p599
I1
tp600
F-16.367350085749393
s(S'1111120000'
p601
I0
tp602
I0
s(S'2000001110'
p603
I1
tp604
F3746.775751210663
s(S'1000000110'
p605
I2
tp606
F-10.0
s(S'0100000000'
p607
I0
tp608
I-10
s(S'0200000110'
p609
I0
tp610
F-13.57030403119114
s(S'0001200000'
p611
I0
tp612
F-12.1
s(S'0010011100'
p613
I2
tp614
F136.8032165065936
s(S'1111000100'
p615
I0
tp616
F-10.0
s(S'0020000000'
p617
I0
tp618
I-10
s(S'1110001000'
p619
I1
tp620
F75.43015641275815
s(S'1001111100'
p621
I0
tp622
F119.32031235912586
s(S'0000100100'
p623
I2
tp624
I-10
s(S'2011110110'
p625
I2
tp626
I11
s(S'1101000010'
p627
I1
tp628
I-10
s(S'1002211110'
p629
I2
tp630
I-10
s(S'0110111010'
p631
I1
tp632
F225.24004466166633
s(S'0000100010'
p633
I0
tp634
F-9.00401162194078
s(S'0111120010'
p635
I2
tp636
F0.0
s(S'0122222210'
p637
I2
tp638
F-10.0
s(S'1110101100'
p639
I0
tp640
F65.33226303945528
s(S'1100000200'
p641
I2
tp642
I-10
s(S'1110100000'
p643
I1
tp644
I-10
s(S'0001011110'
p645
I0
tp646
I-10
s(S'2000000020'
p647
I1
tp648
I-10
s(S'0010010110'
p649
I0
tp650
F30.5
s(S'0112001110'
p651
I1
tp652
I-10
s(S'1000110000'
p653
I2
tp654
F100.87243406629547
s(S'1100220000'
p655
I1
tp656
I-10
s(S'0010000000'
p657
I2
tp658
F3406.1305317377723
s(S'1101001110'
p659
I2
tp660
F61.416629310767
s(S'0100101000'
p661
I2
tp662
I5
s(S'2221000110'
p663
I1
tp664
I-10
s(S'0022211110'
p665
I0
tp666
I-10
s(S'0002221110'
p667
I2
tp668
I-10
s(S'2110011100'
p669
I0
tp670
I12
s(S'1011100000'
p671
I1
tp672
F63.731725230510456
s(S'1101101000'
p673
I0
tp674
I12
s(S'0220000000'
p675
I0
tp676
I-105
s(S'2211110010'
p677
I2
tp678
F65.18462587202728
s(S'2201111100'
p679
I1
tp680
F12.008910161204495
s(S'1101110000'
p681
I2
tp682
F106.1228648889751
s(S'0011100100'
p683
I2
tp684
F60.1956780734875
s(S'0111011010'
p685
I1
tp686
I11
s(S'0110011110'
p687
I2
tp688
I-10
s(S'1112222220'
p689
I2
tp690
F8087.0
s(S'0122222210'
p691
I1
tp692
F-10.0
s(S'0000010110'
p693
I0
tp694
F1235.981524497117
s(S'0002000010'
p695
I0
tp696
F-10.0
s(S'1110000010'
p697
I2
tp698
F-12.1
s(S'0110011100'
p699
I1
tp700
F131.87829192338776
s(S'1010000000'
p701
I0
tp702
I-10
s(S'0111122220'
p703
I1
tp704
I-10
s(S'2010001110'
p705
I2
tp706
I-10
s(S'0120001110'
p707
I2
tp708
F485.0457803218044
s(S'0112222220'
p709
I1
tp710
I-10
s(S'0000020010'
p711
I0
tp712
I-10
s(S'1000111110'
p713
I0
tp714
I-10
s(S'1100000110'
p715
I1
tp716
F8314.892572199056
s(S'0010000110'
p717
I1
tp718
I-10
s(S'1111200000'
p719
I1
tp720
I-10
s(S'1100001110'
p721
I1
tp722
F-13.15873910636307
s(S'2220000000'
p723
I0
tp724
I-10
s(S'0120001110'
p725
I1
tp726
F-10.0
s(S'2211111000'
p727
I1
tp728
I5
s(S'1111110000'
p729
I0
tp730
F-15.245071959746157
s(S'1111110000'
p731
I1
tp732
F931.6509734824484
s(S'0010111010'
p733
I2
tp734
F130.0887717584186
s(S'1110000100'
p735
I2
tp736
F27.11716912800675
s(S'0101110010'
p737
I2
tp738
F95.58395396359808
s(S'0111111110'
p739
I0
tp740
F205.68970057812174
s(S'1111222220'
p741
I0
tp742
I21
s(S'0021111110'
p743
I0
tp744
I-10
s(S'0001111110'
p745
I1
tp746
F178.68109169043885
s(S'2210000110'
p747
I1
tp748
I-10
s(S'0110110010'
p749
I1
tp750
I5
s(S'2100000110'
p751
I0
tp752
I-10
s(S'0022111110'
p753
I0
tp754
I-10
s(S'0001000110'
p755
I0
tp756
I-10
s(S'0001100110'
p757
I2
tp758
F145.9031053260373
s(S'0000020220'
p759
I1
tp760
I36985
s(S'0111011000'
p761
I0
tp762
F502.7194150859939
s(S'2100000000'
p763
I2
tp764
F1033.5546706408802
s(S'1100000020'
p765
I1
tp766
F1300.7309261129794
s(S'1011100110'
p767
I2
tp768
F108.6220099588217
s(S'0000110100'
p769
I0
tp770
I-10
s(S'2200111110'
p771
I2
tp772
I-10
s(S'0111100000'
p773
I2
tp774
I-10
s(S'0002222210'
p775
I0
tp776
I-10
s(S'0001222220'
p777
I1
tp778
I-10
s(S'0101111110'
p779
I0
tp780
I-10
s(S'2000011110'
p781
I1
tp782
F-15.241361927042957
s(S'1110220000'
p783
I1
tp784
I-10
s(S'1100101000'
p785
I1
tp786
F65.8984013095691
s(S'0010222110'
p787
I1
tp788
I-10
s(S'1111000020'
p789
I2
tp790
I-10
s(S'0100000110'
p791
I2
tp792
I-10
s(S'0002000000'
p793
I2
tp794
F3045.2324150806216
s(S'0111001100'
p795
I1
tp796
F84.2068932097464
s(S'1101110110'
p797
I2
tp798
F203.7943961136322
s(S'0110000000'
p799
I1
tp800
F0.0
s(S'1101111110'
p801
I2
tp802
F148.6662463531216
s(S'1111001000'
p803
I2
tp804
F17.511164217945424
s(S'2220000110'
p805
I2
tp806
F566.4484615976035
s(S'1010001110'
p807
I2
tp808
F108.19418054112191
s(S'1110011110'
p809
I1
tp810
F92.94233137388318
s(S'0010110000'
p811
I1
tp812
F85.0735956935415
s(S'1120111110'
p813
I1
tp814
F-11.093756146978166
s(S'1100000010'
p815
I2
tp816
I-10
s(S'0000000200'
p817
I1
tp818
F2536.9369298179436
s(S'1001101000'
p819
I1
tp820
F400.57071380630646
s(S'1000200000'
p821
I0
tp822
I-10
s(S'0200011110'
p823
I1
tp824
F4968.579974143797
s(S'0020001110'
p825
I0
tp826
I-10
s(S'1102200000'
p827
I2
tp828
F-12.1
s(S'1122222000'
p829
I1
tp830
I-10
s(S'0000000200'
p831
I2
tp832
I-10
s(S'0001000010'
p833
I0
tp834
F3960.724817720692
s(S'0102221110'
p835
I0
tp836
I-10
s(S'1101110010'
p837
I0
tp838
I-10
s(S'0100221110'
p839
I0
tp840
I-10
s(S'0000222220'
p841
I1
tp842
F-14.011
s(S'1001000000'
p843
I1
tp844
F496.1632087149467
s(S'0120111110'
p845
I1
tp846
I-10
s(S'1111111000'
p847
I1
tp848
F717.5597762529212
s(S'0000110010'
p849
I2
tp850
F171.059434644317
s(S'2220000100'
p851
I2
tp852
I-10
s(S'0111120110'
p853
I1
tp854
I0
s(S'0002220000'
p855
I2
tp856
I-10
s(S'1200011110'
p857
I1
tp858
I-10
s(S'2200100000'
p859
I1
tp860
I-10
s(S'1011111000'
p861
I1
tp862
I0
s(S'1000000100'
p863
I0
tp864
I-10
s(S'1122222200'
p865
I1
tp866
I-10
s(S'2101110110'
p867
I0
tp868
F115.40338595326426
s(S'1100001110'
p869
I2
tp870
F221.0965117403678
s(S'1000001110'
p871
I1
tp872
F1103.7220069707478
s(S'1100100100'
p873
I1
tp874
F7.85682
s(S'2100000000'
p875
I0
tp876
F-12.1
s(S'1110000020'
p877
I1
tp878
F294.0472333884339
s(S'1111022000'
p879
I0
tp880
I-10
s(S'1100011000'
p881
I0
tp882
F87.07319410199135
s(S'2222222000'
p883
I1
tp884
I-10
s(S'0111111100'
p885
I1
tp886
F265.33973805619524
s(S'1101111010'
p887
I1
tp888
F567.0099525777081
s(S'0221111110'
p889
I2
tp890
I-10
s(S'2110000000'
p891
I1
tp892
F3051.6390634753543
s(S'0001000000'
p893
I1
tp894
F-9.265743849815738
s(S'0011011110'
p895
I1
tp896
F133.0498025960383
s(S'1111111110'
p897
I0
tp898
F4967.950257685227
s(S'0111110000'
p899
I2
tp900
I-10
s(S'0101100110'
p901
I1
tp902
F66.11681621183575
s(S'2221110110'
p903
I2
tp904
I-10
s(S'0121111110'
p905
I2
tp906
I-10
s(S'1000001100'
p907
I1
tp908
I-10
s(S'0100110000'
p909
I0
tp910
I0
s(S'2111100000'
p911
I1
tp912
I-10
s(S'1100011110'
p913
I2
tp914
F701.1686559616919
s(S'0012000000'
p915
I2
tp916
F172.09982828891145
s(S'0022100000'
p917
I0
tp918
I-10
s(S'0120000110'
p919
I1
tp920
F-12.47738682698546
s(S'1101000000'
p921
I2
tp922
I5
s(S'0000022220'
p923
I1
tp924
I-10
s(S'2200001110'
p925
I2
tp926
F-31.322909278791602
s(S'2000000110'
p927
I2
tp928
I-10
s(S'0012000110'
p929
I1
tp930
F140.57397645331102
s(S'0101000000'
p931
I2
tp932
I0
s(S'1122222210'
p933
I0
tp934
F-10.0
s(S'2010011110'
p935
I0
tp936
I7
s(S'0110001110'
p937
I0
tp938
F265.37788129450223
s(S'0000010010'
p939
I1
tp940
F-12.1
s(S'0111122010'
p941
I1
tp942
F0.0
s(S'0000100110'
p943
I2
tp944
F-12.1
s(S'1000000010'
p945
I2
tp946
F-10.0
s(S'1111120000'
p947
I1
tp948
I0
s(S'0011010000'
p949
I0
tp950
F32.17569353779526
s(S'0001100000'
p951
I1
tp952
F-2.0258910927252396
s(S'2221111100'
p953
I0
tp954
F16.057155214865297
s(S'2000000000'
p955
I0
tp956
F-12.1
s(S'0000122220'
p957
I2
tp958
I-10
s(S'1110011200'
p959
I0
tp960
F22.659229424725375
s(S'0100001110'
p961
I1
tp962
F-11.72905347300075
s(S'1000001000'
p963
I0
tp964
I-10
s(S'1100012000'
p965
I2
tp966
I-10
s(S'1111000100'
p967
I2
tp968
F132.56201024792782
s(S'0020000000'
p969
I2
tp970
F-7.3158115
s(S'2200000000'
p971
I1
tp972
F3527.4230296736746
s(S'1001011000'
p973
I1
tp974
F33.1564655319319
s(S'0011000000'
p975
I1
tp976
F-13.595900209581957
s(S'0111110000'
p977
I0
tp978
F277.11815989420916
s(S'0000101000'
p979
I2
tp980
I-10
s(S'2210000000'
p981
I2
tp982
I-10
s(S'2000111100'
p983
I2
tp984
F59.486344285734575
s(S'1101000110'
p985
I1
tp986
F34.602323987127825
s(S'1001111000'
p987
I1
tp988
F145.25048044363496
s(S'0000000110'
p989
I1
tp990
F-15.3487
s(S'0222211110'
p991
I0
tp992
I-10
s(S'1222211110'
p993
I1
tp994
F-19.764774966246996
s(S'1100000200'
p995
I0
tp996
F323.47780645841493
s(S'0001210000'
p997
I0
tp998
I-10
s(S'0001011110'
p999
I2
tp1000
I-10
s(S'2210001110'
p1001
I1
tp1002
I-10
s(S'2021111010'
p1003
I1
tp1004
I11
s(S'2100000010'
p1005
I1
tp1006
F8.303199834170853
s(S'0111110100'
p1007
I0
tp1008
I23
s(S'2201000000'
p1009
I0
tp1010
I-10
s(S'1110001110'
p1011
I1
tp1012
F90.89455516592682
s(S'0111111010'
p1013
I2
tp1014
F141.21876293740024
s(S'1101100000'
p1015
I2
tp1016
F1208.1227665718618
s(S'0001002210'
p1017
I2
tp1018
I-10
s(S'0010000000'
p1019
I0
tp1020
I-10
s(S'0000120010'
p1021
I1
tp1022
I-10
s(S'2222222100'
p1023
I2
tp1024
I-10
s(S'0022211110'
p1025
I2
tp1026
I-10
s(S'0002221110'
p1027
I0
tp1028
I-10
s(S'0011101000'
p1029
I0
tp1030
F368.26669505104223
s(S'0000200000'
p1031
I1
tp1032
I-10
s(S'0221110000'
p1033
I1
tp1034
I-10
s(S'2200000010'
p1035
I1
tp1036
I-10
s(S'0101111010'
p1037
I1
tp1038
F116.85714649756997
s(S'0002211110'
p1039
I2
tp1040
I-10
s(S'1111110100'
p1041
I2
tp1042
I-10
s(S'0001222220'
p1043
I0
tp1044
F-10.0
s(S'2001111110'
p1045
I1
tp1046
F34.48683721954306
s(S'1010000010'
p1047
I1
tp1048
I-10
s(S'1001111110'
p1049
I0
tp1050
I-10
s(S'0211110010'
p1051
I0
tp1052
F58.416556679855724
s(S'0022000110'
p1053
I0
tp1054
I-10
s(S'0000011000'
p1055
I1
tp1056
F472.91751433242257
s(S'1222200000'
p1057
I1
tp1058
F733.0027049229701
s(S'0002000010'
p1059
I2
tp1060
I-250
s(S'0101101110'
p1061
I1
tp1062
F88.36606072778069
s(S'0022222220'
p1063
I1
tp1064
F-14.61811
s(S'0111101100'
p1065
I2
tp1066
F178.31015589247409
s(S'2100001110'
p1067
I0
tp1068
F-20.115505729318336
s(S'0001110100'
p1069
I1
tp1070
F154.57418432935455
s(S'0110101100'
p1071
I0
tp1072
I43
s(S'0011101120'
p1073
I2
tp1074
I3
s(S'2200111100'
p1075
I0
tp1076
I12
s(S'1101010000'
p1077
I0
tp1078
F178.51016465323457
s(S'0222222220'
p1079
I2
tp1080
F-14.011
s(S'0000000100'
p1081
I0
tp1082
I-10
s(S'2211000110'
p1083
I2
tp1084
I-10
s(S'0220000000'
p1085
I1
tp1086
F-12.1
s(S'0011111100'
p1087
I0
tp1088
F79.98444855336207
s(S'2220000000'
p1089
I2
tp1090
I-10
s(S'0000111110'
p1091
I0
tp1092
F3.3220041315698077
s(S'0100011000'
p1093
I1
tp1094
F72.44500477717341
s(S'0001101000'
p1095
I0
tp1096
F360.566985132409
s(S'1111110000'
p1097
I2
tp1098
F-15.036057125740859
s(S'0002222220'
p1099
I1
tp1100
F-15.668452819761608
s(S'1011111100'
p1101
I0
tp1102
I-10
s(S'2221000000'
p1103
I1
tp1104
I-10
s(S'1001110100'
p1105
I2
tp1106
F132.60680969925465
s(S'2220000010'
p1107
I1
tp1108
I-10
s(S'1110011100'
p1109
I2
tp1110
F131.12551852705568
s(S'2221111110'
p1111
I1
tp1112
F20.214149556240532
s(S'0000220000'
p1113
I2
tp1114
I-10
s(S'1220011110'
p1115
I2
tp1116
I-10
s(S'0100000000'
p1117
I2
tp1118
I-10
s(S'0001000110'
p1119
I1
tp1120
F560.5175278639026
s(S'0111101110'
p1121
I0
tp1122
F140.41167591399739
s(S'1111001110'
p1123
I2
tp1124
F115.03503169970155
s(S'0110000110'
p1125
I2
tp1126
F19090.978225235835
s(S'0000000000'
p1127
I1
tp1128
F-144.45196186846383
s(S'1222222110'
p1129
I0
tp1130
I-10
s(S'0111000110'
p1131
I0
tp1132
F164.06198170621374
s(S'1111010110'
p1133
I2
tp1134
I6
s(S'2100000110'
p1135
I2
tp1136
F-12.849699999999999
s(S'0111001000'
p1137
I2
tp1138
F184.44010591149126
s(S'0100011110'
p1139
I0
tp1140
I-10
s(S'0022111110'
p1141
I1
tp1142
I-10
s(S'0111111000'
p1143
I1
tp1144
F128.3952449501251
s(S'1000010000'
p1145
I2
tp1146
I-10
s(S'2222222220'
p1147
I0
tp1148
F-12.1
s(S'1221000000'
p1149
I1
tp1150
I-10
s(S'0010011110'
p1151
I1
tp1152
F365.22620539087393
s(S'0011100000'
p1153
I1
tp1154
F1278.9950091742598
s(S'0222221110'
p1155
I2
tp1156
F-14.011
s(S'1100200000'
p1157
I1
tp1158
I-10
s(S'0002222210'
p1159
I2
tp1160
F-10.0
s(S'0001110110'
p1161
I0
tp1162
F167.62821100760686
s(S'0000011110'
p1163
I2
tp1164
F612.3170763590656
s(S'1111100000'
p1165
I2
tp1166
F-20.68061119017929
s(S'1010011000'
p1167
I0
tp1168
F60.06279621694753
s(S'0110100000'
p1169
I0
tp1170
F839.4073910199318
s(S'0100000110'
p1171
I0
tp1172
I-10
s(S'1010011110'
p1173
I2
tp1174
F55.08149565726004
s(S'0100221110'
p1175
I1
tp1176
I-10
s(S'0010000010'
p1177
I1
tp1178
I-10
s(S'1011101100'
p1179
I2
tp1180
F85.28361207517754
s(S'0101100000'
p1181
I2
tp1182
F1979.0667281722845
s(S'1120011110'
p1183
I0
tp1184
I-10
s(S'2222221110'
p1185
I1
tp1186
F30953.607504071555
s(S'2201100000'
p1187
I2
tp1188
I-10
s(S'2111110110'
p1189
I2
tp1190
F113.99226894218194
s(S'0110000000'
p1191
I0
tp1192
F1514.8044990938288
s(S'0111121110'
p1193
I2
tp1194
I-10
s(S'2220000110'
p1195
I0
tp1196
I-10
s(S'1000002000'
p1197
I1
tp1198
I-10
s(S'1122200000'
p1199
I1
tp1200
I-10
s(S'1011000000'
p1201
I0
tp1202
I0
s(S'2221000110'
p1203
I0
tp1204
I-10
s(S'1000000000'
p1205
I1
tp1206
F-128.14894847700364
s(S'0001111100'
p1207
I2
tp1208
F134.88973986143793
s(S'2221100110'
p1209
I2
tp1210
I-10
s(S'1111100100'
p1211
I2
tp1212
F51.59450097620352
s(S'2210000010'
p1213
I1
tp1214
I-10
s(S'1222222000'
p1215
I1
tp1216
I-10
s(S'0000101110'
p1217
I0
tp1218
F-14.011
s(S'1122222200'
p1219
I2
tp1220
I-10
s(S'0100111000'
p1221
I1
tp1222
I-10
s(S'1111100110'
p1223
I1
tp1224
F99.54771473126848
s(S'0022221110'
p1225
I0
tp1226
I-10
s(S'0001001110'
p1227
I0
tp1228
F347.6797368722959
s(S'2201111000'
p1229
I1
tp1230
I27
s(S'0012000010'
p1231
I0
tp1232
F-8.61876531824608
s(S'1100100010'
p1233
I1
tp1234
I7
s(S'2222101110'
p1235
I2
tp1236
I-10
s(S'2001111100'
p1237
I0
tp1238
F152.72988122646402
s(S'0110000010'
p1239
I1
tp1240
F5557.457379360707
s(S'2201100010'
p1241
I0
tp1242
I-10
s(S'1000220000'
p1243
I2
tp1244
F-5.590000000000001
s(S'0000111100'
p1245
I1
tp1246
F0.8879193920340998
s(S'1100200000'
p1247
I2
tp1248
I-10
s(S'0011111110'
p1249
I0
tp1250
F461.6268028173442
s(S'1000000100'
p1251
I2
tp1252
F297.8626379195969
s(S'2222222110'
p1253
I1
tp1254
I-10
s(S'0100000010'
p1255
I0
tp1256
I-10
s(S'1110200000'
p1257
I0
tp1258
I-10
s(S'0021000110'
p1259
I0
tp1260
I-10
s(S'1200001110'
p1261
I2
tp1262
F-12.1
s(S'2211000000'
p1263
I0
tp1264
I-10
s(S'1100000100'
p1265
I1
tp1266
I-10
s(S'1000000110'
p1267
I1
tp1268
F-12.1
s(S'1200111110'
p1269
I1
tp1270
I-10
s(S'1110000110'
p1271
I1
tp1272
F101.57590283426967
s(S'0011100010'
p1273
I0
tp1274
F344.2675059474564
s(S'1120111110'
p1275
I0
tp1276
F3.4234805723249018
s(S'2200111100'
p1277
I2
tp1278
I-10
s(S'0001011100'
p1279
I0
tp1280
F195.78446629498382
s(S'1110002000'
p1281
I2
tp1282
I-10
s(S'0122000110'
p1283
I2
tp1284
F2036.5530511045868
s(S'2221001110'
p1285
I0
tp1286
I-10
s(S'0100000100'
p1287
I1
tp1288
I-10
s(S'2000000020'
p1289
I2
tp1290
I-10
s(S'2222221000'
p1291
I1
tp1292
I-10
s(S'1111000000'
p1293
I1
tp1294
F-104.72071639565574
s(S'0111010100'
p1295
I2
tp1296
F42.17448524522937
s(S'1100022000'
p1297
I2
tp1298
I-10
s(S'0101110110'
p1299
I0
tp1300
F301.56546303471555
s(S'1101000000'
p1301
I0
tp1302
F5824.859023381911
s(S'1001011100'
p1303
I1
tp1304
F54.326658444431594
s(S'0022210000'
p1305
I2
tp1306
I-10
s(S'0101000000'
p1307
I0
tp1308
I-10
s(S'1122222210'
p1309
I2
tp1310
I-10
s(S'0010111100'
p1311
I2
tp1312
F135.43253542017953
s(S'0022221110'
p1313
I2
tp1314
I-10
s(S'0000001100'
p1315
I1
tp1316
F-1.915
s(S'1000000010'
p1317
I0
tp1318
F-12.1
s(S'1001101100'
p1319
I0
tp1320
F115.51334096628126
s(S'0022001110'
p1321
I1
tp1322
I-10
s(S'0210001110'
p1323
I1
tp1324
F-12.1
s(S'1112222220'
p1325
I1
tp1326
F-12.1
s(S'2000000000'
p1327
I2
tp1328
F-14.03230737987551
s(S'0000122220'
p1329
I0
tp1330
I-10
s(S'0111010000'
p1331
I2
tp1332
F310.5106175630715
s(S'0000220000'
p1333
I0
tp1334
F-10.0
s(S'0000020000'
p1335
I0
tp1336
I-10
s(S'1122000000'
p1337
I1
tp1338
F10.488535042508213
s(S'0111001010'
p1339
I1
tp1340
F73.13739480615547
s(S'0001211110'
p1341
I0
tp1342
I-10
s(S'2210000000'
p1343
I0
tp1344
F6140.3515122623185
s(S'1220001110'
p1345
I0
tp1346
F-13.171818958507291
s(S'0220000110'
p1347
I1
tp1348
F-13.296578996777107
s(S'0120011110'
p1349
I1
tp1350
I-10
s(S'1100221000'
p1351
I0
tp1352
I-10
s(S'1001110110'
p1353
I0
tp1354
F279.402664071253
s(S'0011000010'
p1355
I0
tp1356
F866.0105414396353
s(S'1110110100'
p1357
I2
tp1358
F90.21588729605605
s(S'1111111110'
p1359
I2
tp1360
F-7.459636214081256
s(S'0100011110'
p1361
I2
tp1362
I-10
s(S'1111002000'
p1363
I0
tp1364
I-10
s(S'1112200000'
p1365
I2
tp1366
I-10
s(S'1100012000'
p1367
I0
tp1368
I-10
s(S'0110111110'
p1369
I1
tp1370
F-12.014366313627663
s(S'1110022000'
p1371
I0
tp1372
F-10.0
s(S'0110011000'
p1373
I0
tp1374
F388.61531787352493
s(S'2201000000'
p1375
I2
tp1376
I-10
s(S'0101111000'
p1377
I1
tp1378
I-10
s(S'2222222100'
p1379
I0
tp1380
I-10
s(S'2221101110'
p1381
I1
tp1382
I-10
s(S'0000001110'
p1383
I0
tp1384
F14023.892206157288
s(S'2222211110'
p1385
I2
tp1386
F-16.967316999999998
s(S'2200000110'
p1387
I1
tp1388
F-17.52091898824016
s(S'1100000020'
p1389
I2
tp1390
F-10.0
s(S'1000011110'
p1391
I2
tp1392
F343.5985721418005
s(S'0111112010'
p1393
I0
tp1394
F4.53173949522
s(S'0222000000'
p1395
I1
tp1396
F-12.695419142537903
s(S'1001111110'
p1397
I2
tp1398
F448.63889522885404
s(S'0111101120'
p1399
I2
tp1400
I0
s(S'1101101110'
p1401
I2
tp1402
F30.02459233734803
s(S'1111101000'
p1403
I0
tp1404
I31775
s(S'2100001110'
p1405
I2
tp1406
F1785.8131707612656
s(S'1100022000'
p1407
I0
tp1408
I-10
s(S'0000011010'
p1409
I0
tp1410
F607.8019996059837
s(S'0020000110'
p1411
I1
tp1412
I-10
s(S'1002000000'
p1413
I2
tp1414
I-10
s(S'0002001110'
p1415
I0
tp1416
I-10
s(S'1001010000'
p1417
I1
tp1418
I3
s(S'0111122000'
p1419
I0
tp1420
F0.0
s(S'0000000100'
p1421
I2
tp1422
I-10
s(S'2211111100'
p1423
I0
tp1424
F83.33892935138134
s(S'0011001110'
p1425
I2
tp1426
F359.1868175828884
s(S'1100000000'
p1427
I2
tp1428
F23.59673513286474
s(S'0111011100'
p1429
I1
tp1430
F229.63457527717338
s(S'1000100000'
p1431
I2
tp1432
F2757.387905868565
s(S'0111112210'
p1433
I1
tp1434
F0.9279136734302662
s(S'0222222220'
p1435
I0
tp1436
F1713.849383026436
s(S'2111111100'
p1437
I2
tp1438
I-10
s(S'0122111110'
p1439
I0
tp1440
I-10
s(S'1011111100'
p1441
I2
tp1442
F46.62241276122093
s(S'1100000010'
p1443
I1
tp1444
F2590.4702154851543
s(S'0000001000'
p1445
I2
tp1446
I-10
s(S'1011110110'
p1447
I0
tp1448
F162.73576389736465
s(S'0210011110'
p1449
I2
tp1450
I-10
s(S'0111122110'
p1451
I1
tp1452
F0.3961640092486738
s(S'0112222220'
p1453
I2
tp1454
I-10
s(S'0111112220'
p1455
I1
tp1456
I0
s(S'1000000110'
p1457
I0
tp1458
F950.373450745955
s(S'1122222000'
p1459
I2
tp1460
I-10
s(S'0110000110'
p1461
I0
tp1462
F-14.011
s(S'1011011110'
p1463
I1
tp1464
I7
s(S'2222221010'
p1465
I0
tp1466
I-10
s(S'1000000200'
p1467
I0
tp1468
I-10
s(S'2111001100'
p1469
I0
tp1470
F161.89726651884638
s(S'0112000110'
p1471
I0
tp1472
F88.98849391540766
s(S'2011001110'
p1473
I2
tp1474
I-10
s(S'0100010000'
p1475
I1
tp1476
I-10
s(S'0122222220'
p1477
I2
tp1478
I-10
s(S'2211110110'
p1479
I2
tp1480
F117.6691654746259
s(S'2000000110'
p1481
I1
tp1482
F13891.535367909953
s(S'0000101000'
p1483
I0
tp1484
F2568.196425221023
s(S'1100001100'
p1485
I1
tp1486
I-10
s(S'0002100000'
p1487
I1
tp1488
F4336.699
s(S'2222222220'
p1489
I2
tp1490
F812.2891854614857
s(S'2222211110'
p1491
I0
tp1492
F-18.184624
s(S'0222221110'
p1493
I0
tp1494
F17957.26613538796
s(S'0011110100'
p1495
I1
tp1496
F56.60689661656262
s(S'0000100000'
p1497
I2
tp1498
F-13.633666128684528
s(S'0111111200'
p1499
I0
tp1500
I0
s(S'0200011110'
p1501
I0
tp1502
F-12.1
s(S'0000011110'
p1503
I0
tp1504
F-23.554869705228164
s(S'1111100000'
p1505
I0
tp1506
F-20.307567054622744
s(S'2220000100'
p1507
I1
tp1508
I-10
s(S'0000100100'
p1509
I0
tp1510
F168.94506845216517
s(S'0011100000'
p1511
I2
tp1512
I-10
s(S'2222101110'
p1513
I0
tp1514
I-10
s(S'1000100000'
p1515
I0
tp1516
F-11.725003
s(S'0111112200'
p1517
I0
tp1518
F0.46960649579620695
s(S'0002222110'
p1519
I2
tp1520
I-10
s(S'1111011110'
p1521
I2
tp1522
F95.5722598266316
s(S'0221000010'
p1523
I1
tp1524
I-10
s(S'1111000110'
p1525
I0
tp1526
F159.51423575983367
s(S'2111101110'
p1527
I2
tp1528
F111.27867522636332
s(S'0111120110'
p1529
I0
tp1530
F0.029774756354863225
s(S'2221110010'
p1531
I1
tp1532
F67.64576534948804
s(S'1022000000'
p1533
I1
tp1534
I-10
s(S'2221000110'
p1535
I2
tp1536
F-10.0
s(S'0121111100'
p1537
I2
tp1538
I9
s(S'0011111110'
p1539
I1
tp1540
F-12.1
s(S'0111110000'
p1541
I1
tp1542
I-10
s(S'0000000010'
p1543
I2
tp1544
F-38.81808572627506
s(S'2000001010'
p1545
I1
tp1546
I-10
s(S'2222111110'
p1547
I2
tp1548
F413.92518060489766
s(S'2111100110'
p1549
I1
tp1550
F92.47905061845299
s(S'0012000010'
p1551
I2
tp1552
I-10
s(S'1010110000'
p1553
I0
tp1554
I-10
s(S'1111110100'
p1555
I1
tp1556
F2703.938659002182
s(S'1000220000'
p1557
I0
tp1558
F-10.0
s(S'2200001110'
p1559
I1
tp1560
F-20.92733569291631
s(S'1100200000'
p1561
I0
tp1562
F792.7305428110335
s(S'1011110010'
p1563
I0
tp1564
F39.354074742299666
s(S'1011100010'
p1565
I0
tp1566
I-10
s(S'2000000010'
p1567
I2
tp1568
I-10
s(S'1111011000'
p1569
I0
tp1570
F309.64991486130873
s(S'0110111110'
p1571
I0
tp1572
F823.1982402432907
s(S'1222222220'
p1573
I1
tp1574
I-10
s(S'1201111110'
p1575
I0
tp1576
F132.83244883139895
s(S'0002000110'
p1577
I2
tp1578
F995.2316050689844
s(S'0100000010'
p1579
I2
tp1580
I-10
s(S'1111101000'
p1581
I1
tp1582
I-10
s(S'1101100110'
p1583
I2
tp1584
F25.744678222853672
s(S'1200001110'
p1585
I0
tp1586
F12479.755523447224
s(S'0112000110'
p1587
I2
tp1588
F-12.1
s(S'2000001110'
p1589
I2
tp1590
F-15.697569726276118
s(S'0111011110'
p1591
I0
tp1592
F104.15712857143669
s(S'0100000000'
p1593
I1
tp1594
F2958.9488462657355
s(S'0001200000'
p1595
I1
tp1596
F669.0077533167272
s(S'1111000100'
p1597
I1
tp1598
I-10
s(S'0000120000'
p1599
I2
tp1600
I-10
s(S'2200000000'
p1601
I2
tp1602
F-10.61723844
s(S'0101111100'
p1603
I0
tp1604
F63.894311759535526
s(S'0011000110'
p1605
I1
tp1606
F790.1141452690665
s(S'1100010000'
p1607
I1
tp1608
F3044.2493451862765
s(S'0200000000'
p1609
I0
tp1610
I-10
s(S'0110000100'
p1611
I1
tp1612
I6
s(S'2111111010'
p1613
I0
tp1614
F81.87414588064716
s(S'0111112220'
p1615
I2
tp1616
F0.14088194873886206
s(S'1000001000'
p1617
I1
tp1618
F1583.0818064448974
s(S'1100220000'
p1619
I0
tp1620
F11.700000000000001
s(S'2001110010'
p1621
I1
tp1622
I27
s(S'1121111000'
p1623
I0
tp1624
F16.59682442084075
s(S'0122000110'
p1625
I0
tp1626
F-12.1
s(S'1110100000'
p1627
I0
tp1628
I-10
s(S'0022200000'
p1629
I2
tp1630
I-10
s(S'1001100000'
p1631
I2
tp1632
F443.53726131414334
s(S'0011111000'
p1633
I0
tp1634
F246.94071791193002
s(S'0111000000'
p1635
I1
tp1636
F-2.8822699895089468
s(S'2100000010'
p1637
I2
tp1638
I-150
s(S'0022000000'
p1639
I1
tp1640
F774.4302557318683
s(S'0000101100'
p1641
I0
tp1642
F535.0837402688114
s(S'0010101110'
p1643
I0
tp1644
F131.71398079078122
s(S'0012000000'
p1645
I0
tp1646
I-10
s(S'0001111010'
p1647
I0
tp1648
F218.5420832897673
s(S'1011111010'
p1649
I1
tp1650
F135.27905904211408
s(S'0112111110'
p1651
I0
tp1652
I-10
s(S'1100001100'
p1653
I2
tp1654
F7.52507016187607
s(S'1100000100'
p1655
I2
tp1656
I-10
s(S'2222222210'
p1657
I2
tp1658
I-10
s(S'1011100000'
p1659
I0
tp1660
I-10
s(S'1120001110'
p1661
I0
tp1662
I-10
s(S'1010011100'
p1663
I1
tp1664
F106.84534793897102
s(S'2222222210'
p1665
I1
tp1666
I6
s(S'1110101000'
p1667
I2
tp1668
F64.97741516998126
s(S'0110011110'
p1669
I1
tp1670
I-10
s(S'0000122110'
p1671
I0
tp1672
I-10
s(S'2000000000'
p1673
I1
tp1674
F11932.009046154868
s(S'1111011200'
p1675
I1
tp1676
F5.459576151709893
s(S'0002000010'
p1677
I1
tp1678
F118.87100063196182
s(S'1110000010'
p1679
I1
tp1680
F-12.1
s(S'0100001000'
p1681
I2
tp1682
F86.32996310481892
s(S'0110100110'
p1683
I0
tp1684
F162.8628951527835
s(S'0000020000'
p1685
I2
tp1686
I-10
s(S'2201111100'
p1687
I0
tp1688
I-10
s(S'1211110010'
p1689
I1
tp1690
F48.66195952257442
s(S'2221111000'
p1691
I0
tp1692
F34.13794125625562
s(S'0200000010'
p1693
I0
tp1694
I-10
s(S'2111111110'
p1695
I0
tp1696
I49
s(S'1220001110'
p1697
I2
tp1698
F-12.1
s(S'0220000000'
p1699
I2
tp1700
F1249.319801278924
s(S'0000111000'
p1701
I0
tp1702
F775.066234949886
s(S'0011000010'
p1703
I2
tp1704
I-10
s(S'0120001110'
p1705
I0
tp1706
F-7.098884563724723
s(S'1110000110'
p1707
I2
tp1708
I-10
s(S'1201111100'
p1709
I1
tp1710
I-10
s(S'0002222220'
p1711
I2
tp1712
F-14.088616
s(S'1010111110'
p1713
I2
tp1714
I-10
s(S'1111002000'
p1715
I2
tp1716
F316.54135677613715
s(S'0221000000'
p1717
I1
tp1718
I-10
s(S'2111101100'
p1719
I1
tp1720
F106.67003545479626
s(S'2221111110'
p1721
I2
tp1722
F-14.011
s(S'1110022000'
p1723
I2
tp1724
I-10
s(S'0001021110'
p1725
I0
tp1726
I-10
s(S'0000120000'
p1727
I0
tp1728
I-10
s(S'0001111110'
p1729
I0
tp1730
F-14.357036219975182
s(S'0120111110'
p1731
I2
tp1732
I-10
s(S'2222222210'
p1733
I0
tp1734
I-10
s(S'0220001110'
p1735
I0
tp1736
I-10
s(S'0110000010'
p1737
I2
tp1738
I-10
s(S'2100000110'
p1739
I1
tp1740
F5036.787973682009
s(S'0100101100'
p1741
I1
tp1742
I9
s(S'0022211110'
p1743
I1
tp1744
F-10.0
s(S'0000001110'
p1745
I2
tp1746
F-13.437699999999998
s(S'1100000100'
p1747
I0
tp1748
F158.21044552203287
s(S'0220000010'
p1749
I2
tp1750
F970.5429916621415
s(S'1100000020'
p1751
I0
tp1752
I-10
s(S'1000011110'
p1753
I0
tp1754
F-20.331702633096718
s(S'2221110000'
p1755
I0
tp1756
I-10
s(S'0010110110'
p1757
I0
tp1758
F374.9894274988923
s(S'1100000000'
p1759
I0
tp1760
F-132.685337868197
s(S'1110000000'
p1761
I0
tp1762
F2358.701495774046
s(S'0000110000'
p1763
I2
tp1764
F1542.6923805463998
s(S'0002222210'
p1765
I1
tp1766
F1045.893095353036
s(S'0001222220'
p1767
I2
tp1768
I-10
s(S'0101111110'
p1769
I1
tp1770
F356.9532797799325
s(S'2000011110'
p1771
I0
tp1772
F1102.7164583267813
s(S'0001011000'
p1773
I0
tp1774
F54.804242933061815
s(S'2001111010'
p1775
I1
tp1776
F61.05546300830572
s(S'1111000020'
p1777
I1
tp1778
I-10
s(S'0110001100'
p1779
I0
tp1780
F604.0682754960017
s(S'0001010000'
p1781
I1
tp1782
I9
s(S'0010000010'
p1783
I2
tp1784
F849.1471943015393
s(S'0002000000'
p1785
I1
tp1786
I-10
s(S'0221100000'
p1787
I0
tp1788
I-10
s(S'1101011100'
p1789
I1
tp1790
F48.755261017321025
s(S'0011001110'
p1791
I0
tp1792
I-10
s(S'2111111100'
p1793
I0
tp1794
F21388.28552714141
s(S'0010111110'
p1795
I1
tp1796
F105.68674683817859
s(S'0200000000'
p1797
I2
tp1798
F2809.5474612215085
s(S'1102000000'
p1799
I1
tp1800
I-10
s(S'2211111110'
p1801
I1
tp1802
F-3.703702999999999
s(S'1120111110'
p1803
I2
tp1804
I-10
s(S'1011110000'
p1805
I2
tp1806
I-10
s(S'0000001000'
p1807
I0
tp1808
F13471.871122624103
s(S'0002111100'
p1809
I0
tp1810
I6
s(S'0111100100'
p1811
I0
tp1812
I-10
s(S'0021011110'
p1813
I0
tp1814
I-10
s(S'0001111100'
p1815
I1
tp1816
F-0.8016978759315521
s(S'0000010100'
p1817
I0
tp1818
F861.6867436143941
s(S'2210000010'
p1819
I2
tp1820
I-10
s(S'1102200000'
p1821
I1
tp1822
F4894.884256129196
s(S'1122222000'
p1823
I0
tp1824
F20.491951660038005
s(S'0110100100'
p1825
I1
tp1826
I6
s(S'2001000000'
p1827
I1
tp1828
I-10
s(S'2100111100'
p1829
I2
tp1830
F1.2000000000000002
s(S'1111000010'
p1831
I2
tp1832
I-10
s(S'1000000200'
p1833
I2
tp1834
I-10
s(S'0100111000'
p1835
I2
tp1836
F100.24897245835083
s(S'0011111010'
p1837
I1
tp1838
F237.26752286876987
s(S'1000001000'
p1839
I2
tp1840
I-10
s(S'1002000000'
p1841
I0
tp1842
F-10.0
s(S'0100010000'
p1843
I2
tp1844
I-10
s(S'0122222220'
p1845
I0
tp1846
I-10
s(S'1001000000'
p1847
I0
tp1848
I-10
s(S'0120111110'
p1849
I0
tp1850
F6.16037656879174
s(S'0010110010'
p1851
I0
tp1852
F129.55344453386545
s(S'0002200000'
p1853
I1
tp1854
F-13.57
s(S'0000111100'
p1855
I2
tp1856
F217.0859697588533
s(S'0021000010'
p1857
I0
tp1858
I-10
s(S'1111111100'
p1859
I1
tp1860
I-10
s(S'0000100000'
p1861
I0
tp1862
F-10.303172041354895
s(S'0100100100'
p1863
I2
tp1864
I9
s(S'2222222110'
p1865
I2
tp1866
I-10
s(S'1111101110'
p1867
I1
tp1868
F118.57862774490229
s(S'1110000020'
p1869
I2
tp1870
I-10
s(S'2101111000'
p1871
I0
tp1872
I15
s(S'1000111100'
p1873
I2
tp1874
F229.42636486865507
s(S'0001010010'
p1875
I1
tp1876
F124.2374753863631
s(S'1100110100'
p1877
I2
tp1878
F77.6419314329383
s(S'1000001110'
p1879
I0
tp1880
F-17.913778389271048
s(S'2100000000'
p1881
I1
tp1882
I-10
s(S'1011100010'
p1883
I2
tp1884
F41.25771301546034
s(S'0001220000'
p1885
I1
tp1886
I-10
s(S'0100111010'
p1887
I2
tp1888
F188.79885211369455
s(S'2001111000'
p1889
I1
tp1890
F27.604809126785895
s(S'2211111110'
p1891
I2
tp1892
F8.289307463511634
s(S'0222000010'
p1893
I1
tp1894
I-10
s(S'0022000010'
p1895
I1
tp1896
I-10
s(S'2222000000'
p1897
I1
tp1898
F-14.084730475126342
s(S'0111111100'
p1899
I2
tp1900
I-10
s(S'1000011100'
p1901
I1
tp1902
F96.66727737227066
s(S'0020000010'
p1903
I1
tp1904
I-10
s(S'1222000000'
p1905
I0
tp1906
F-20.92955360678257
s(S'1222221110'
p1907
I1
tp1908
I-10
s(S'1100100000'
p1909
I1
tp1910
I-10
s(S'0221111110'
p1911
I1
tp1912
I-10
s(S'2110000000'
p1913
I0
tp1914
I-10
s(S'0011011110'
p1915
I0
tp1916
F-12.1
s(S'0000000010'
p1917
I0
tp1918
F-19.808899604159816
s(S'0101111000'
p1919
I2
tp1920
F61.644029291025284
s(S'0122221110'
p1921
I1
tp1922
I-10
s(S'2222111110'
p1923
I0
tp1924
F-13.839009999999998
s(S'0022222210'
p1925
I0
tp1926
F-12.1
s(S'1111000000'
p1927
I2
tp1928
F49.18556374329107
s(S'1100002000'
p1929
I0
tp1930
I-10
s(S'1100111110'
p1931
I0
tp1932
F148.46316108883963
s(S'2201000010'
p1933
I0
tp1934
I-10
s(S'0111111000'
p1935
I2
tp1936
I-10
s(S'0012000110'
p1937
I2
tp1938
F-8.98009357550752
s(S'0111111000'
p1939
I0
tp1940
F-9.454
s(S'1122222210'
p1941
I1
tp1942
I-10
s(S'1110110010'
p1943
I2
tp1944
I10
s(S'0110111110'
p1945
I2
tp1946
F-6.994152253215337
s(S'0000010010'
p1947
I0
tp1948
I-10
s(S'0111122010'
p1949
I2
tp1950
F0.057531776720745234
s(S'2222211010'
p1951
I1
tp1952
I-10
s(S'2211100110'
p1953
I0
tp1954
F113.88259367144718
s(S'0110011110'
p1955
I0
tp1956
F1159.9456130338858
s(S'0001100000'
p1957
I0
tp1958
F4879.381284122448
s(S'1000020000'
p1959
I1
tp1960
I-10
s(S'1111121110'
p1961
I0
tp1962
I0
s(S'2000001110'
p1963
I0
tp1964
F-17.34325396897933
s(S'0122222210'
p1965
I0
tp1966
F-10.0
s(S'0100001110'
p1967
I0
tp1968
F716.8150849818348
s(S'0200000110'
p1969
I1
tp1970
F20821.357072049046
s(S'0100111110'
p1971
I2
tp1972
F181.72068169669214
s(S'1201100000'
p1973
I2
tp1974
I-10
s(S'0012111110'
p1975
I1
tp1976
I-10
s(S'1101101100'
p1977
I0
tp1978
F21.318720817843868
s(S'0020000000'
p1979
I1
tp1980
F1139.2230106688723
s(S'2200000000'
p1981
I0
tp1982
I-50
s(S'0000111110'
p1983
I2
tp1984
F200.15876649198836
s(S'0011000000'
p1985
I0
tp1986
F1098.7577391840896
s(S'2221101110'
p1987
I0
tp1988
I-10
s(S'1011001110'
p1989
I2
tp1990
F35.89510949316443
s(S'1011000110'
p1991
I2
tp1992
I5
s(S'2211101110'
p1993
I1
tp1994
F33.01132808628907
s(S'0011011100'
p1995
I1
tp1996
F5014.269946833001
s(S'0000100010'
p1997
I1
tp1998
F4449.2438228155515
s(S'0000000110'
p1999
I0
tp2000
F-15.109926743837724
s(S'0221000000'
p2001
I0
tp2002
F-12.1
s(S'1110100000'
p2003
I2
tp2004
F1378.5296021737654
s(S'2101111010'
p2005
I1
tp2006
I19
s(S'1111011010'
p2007
I0
tp2008
F83.91826288769461
s(S'1100011100'
p2009
I0
tp2010
F244.62248691791805
s(S'2011111010'
p2011
I1
tp2012
F160.16662282436195
s(S'1011010000'
p2013
I0
tp2014
F66.79465609623168
s(S'2210001110'
p2015
I0
tp2016
F57.526106023108674
s(S'2000111110'
p2017
I0
tp2018
F241.39119199791708
s(S'2100000010'
p2019
I0
tp2020
F123.35849446769024
s(S'1111100010'
p2021
I0
tp2022
F651.0202587802327
s(S'1010111110'
p2023
I1
tp2024
F24.432286550405742
s(S'2221111010'
p2025
I0
tp2026
F67.24624166497519
s(S'1110020000'
p2027
I2
tp2028
I-10
s(S'0010000000'
p2029
I1
tp2030
I-10
s(S'0000120010'
p2031
I0
tp2032
F-12.1
s(S'1111001100'
p2033
I2
tp2034
F386.59123358993224
s(S'1101111100'
p2035
I2
tp2036
F78.3623887505013
s(S'1100001100'
p2037
I0
tp2038
I-10
s(S'0000200000'
p2039
I0
tp2040
I-10
s(S'0111101120'
p2041
I1
tp2042
F26.454190057046475
s(S'1011100000'
p2043
I2
tp2044
F671.5634336467588
s(S'1120001110'
p2045
I2
tp2046
F3145.2978086885223
s(S'0001100010'
p2047
I1
tp2048
F1075.9106684838077
s(S'1102111100'
p2049
I1
tp2050
I-10
s(S'1121000000'
p2051
I1
tp2052
I-10
s(S'0000022210'
p2053
I0
tp2054
I-10
s(S'0011110010'
p2055
I1
tp2056
F230.35640264367296
s(S'0100110110'
p2057
I2
tp2058
I7
s(S'1001111110'
p2059
I1
tp2060
I-10
s(S'0111101000'
p2061
I2
tp2062
F1.1161370725634097
s(S'1111011100'
p2063
I1
tp2064
F389.83102203348864
s(S'0000120110'
p2065
I1
tp2066
I-10
s(S'0022222220'
p2067
I0
tp2068
F-14.38657177
s(S'0111000000'
p2069
I2
tp2070
F-5.1
s(S'1010000000'
p2071
I1
tp2072
F1607.9874682821355
s(S'2201111100'
p2073
I2
tp2074
I-10
s(S'0020000110'
p2075
I2
tp2076
F601.9228096038087
s(S'0200000010'
p2077
I2
tp2078
I-10
s(S'0000000020'
p2079
I0
tp2080
I-10
s(S'0001101010'
p2081
I2
tp2082
F483.5426820843892
s(S'1000111110'
p2083
I1
tp2084
F0.6262221903292438
s(S'0000000100'
p2085
I1
tp2086
F2988.163468814393
s(S'0010000110'
p2087
I0
tp2088
F801.3943496993795
s(S'1011111110'
p2089
I2
tp2090
F163.6830275309199
s(S'1100001110'
p2091
I0
tp2092
I-10
s(S'2220000000'
p2093
I1
tp2094
F731.102638588135
s(S'0000111110'
p2095
I1
tp2096
F-19.403110319441883
s(S'2211111000'
p2097
I0
tp2098
I-10
s(S'2111111100'
p2099
I1
tp2100
I-10
s(S'1110111110'
p2101
I1
tp2102
F101.842804560428
s(S'0002222220'
p2103
I0
tp2104
F-13.60969
s(S'1010111110'
p2105
I0
tp2106
I-10
s(S'2221000000'
p2107
I2
tp2108
I-10
s(S'0012000000'
p2109
I1
tp2110
I-10
s(S'0122111100'
p2111
I1
tp2112
I4
s(S'2221111110'
p2113
I0
tp2114
F-12.1
s(S'0111111110'
p2115
I1
tp2116
F-13.195151866918552
s(S'0111000100'
p2117
I2
tp2118
F63.42814527172577
s(S'1011011100'
p2119
I0
tp2120
F63.15234256607087
s(S'0001111110'
p2121
I2
tp2122
F-13.27611743338734
s(S'0000022220'
p2123
I2
tp2124
F-12.1
s(S'2210000110'
p2125
I0
tp2126
I-10
s(S'1110002100'
p2127
I1
tp2128
I5
s(S'0220001110'
p2129
I2
tp2130
I-10
s(S'0012111110'
p2131
I0
tp2132
I-10
s(S'0000120010'
p2133
I2
tp2134
F12473.521793923488
s(S'0100011110'
p2135
I1
tp2136
F7426.424597458723
s(S'1100002000'
p2137
I2
tp2138
I-10
s(S'2200000010'
p2139
I0
tp2140
I-10
s(S'0220000010'
p2141
I0
tp2142
I-10
s(S'1000010000'
p2143
I1
tp2144
F836.1037350901782
s(S'1100001000'
p2145
I0
tp2146
F382.85191966766877
s(S'2221110000'
p2147
I2
tp2148
I-10
s(S'1110100110'
p2149
I2
tp2150
I7
s(S'0010011110'
p2151
I2
tp2152
F-12.1
s(S'1112111100'
p2153
I1
tp2154
I-10
s(S'1110000000'
p2155
I2
tp2156
F-12.872187224863707
s(S'0022000110'
p2157
I1
tp2158
I-10
s(S'0021000110'
p2159
I2
tp2160
I-10
s(S'0001111000'
p2161
I2
tp2162
F92.19841292110044
s(S'2000011110'
p2163
I2
tp2164
F-15.407573335258006
s(S'0001100000'
p2165
I2
tp2166
F-10.0
s(S'2221001110'
p2167
I2
tp2168
I-10
s(S'1000020000'
p2169
I2
tp2170
I-10
s(S'2222221100'
p2171
I1
tp2172
I-10
s(S'0100000110'
p2173
I1
tp2174
F2465.4910843021084
s(S'0011101110'
p2175
I2
tp2176
F103.63036856840381
s(S'0010000010'
p2177
I0
tp2178
I-10
s(S'0022222110'
p2179
I1
tp2180
I-10
s(S'0222222110'
p2181
I0
tp2182
F-11.512768033907228
s(S'1011101120'
p2183
I0
tp2184
I11
s(S'1111111010'
p2185
I2
tp2186
F201.19716349191964
s(S'0000120000'
p2187
I1
tp2188
I-10
s(S'1000020000'
p2189
I0
tp2190
I-10
s(S'0000101010'
p2191
I2
tp2192
F183.06347023584965
s(S'1000111010'
p2193
I2
tp2194
F343.35244460484
s(S'1011000000'
p2195
I1
tp2196
F870.2173187583494
s(S'0011110000'
p2197
I0
tp2198
F313.3218110859081
s(S'0111100100'
p2199
I2
tp2200
F-1.796800000000001
s(S'0022100000'
p2201
I1
tp2202
I-10
s(S'1000000000'
p2203
I2
tp2204
F59.32056972837774
s(S'0200011110'
p2205
I2
tp2206
I-10
s(S'1002220000'
p2207
I1
tp2208
F19048.11992
s(S'2210000010'
p2209
I0
tp2210
F39.60877667537099
s(S'1111111110'
p2211
I1
tp2212
F-15.01137034094155
s(S'1222222000'
p2213
I2
tp2214
I-10
s(S'1100110000'
p2215
I1
tp2216
F100.1132009973257
s(S'0100111000'
p2217
I0
tp2218
I-10
s(S'1122200000'
p2219
I2
tp2220
I-10
s(S'0022221110'
p2221
I1
tp2222
F-10.0
s(S'0000222220'
p2223
I2
tp2224
F22800.6923
s(S'1122100000'
p2225
I2
tp2226
I-10
s(S'1111102200'
p2227
I2
tp2228
I-10
s(S'1001000000'
p2229
I2
tp2230
I-10
s(S'0221111010'
p2231
I2
tp2232
I10
s(S'0000111100'
p2233
I0
tp2234
F-1.8773478181833845
s(S'1001000010'
p2235
I1
tp2236
I-10
s(S'0100011100'
p2237
I1
tp2238
F98.63396875283092
s(S'0011200000'
p2239
I1
tp2240
I-10
s(S'2000000010'
p2241
I1
tp2242
F770.599059116024
s(S'1200011110'
p2243
I0
tp2244
F349.9104559193826
s(S'1000000100'
p2245
I1
tp2246
F-12.1
s(S'2222222110'
p2247
I0
tp2248
F333.3112067534387
s(S'2110000000'
p2249
I2
tp2250
I-10
s(S'1222222100'
p2251
I2
tp2252
I-10
s(S'1011110000'
p2253
I0
tp2254
F0.9308173844109209
s(S'0220000010'
p2255
I1
tp2256
I-10
s(S'1000001110'
p2257
I2
tp2258
F-115.213518308414
s(S'1122000000'
p2259
I0
tp2260
I-10
s(S'2222100110'
p2261
I0
tp2262
I-10
s(S'1110000020'
p2263
I0
tp2264
I-10
s(S'1010111000'
p2265
I1
tp2266
F111.35541243245723
s(S'1200111110'
p2267
I0
tp2268
F122.33339864365837
s(S'0101011100'
p2269
I2
tp2270
F362.16966525198353
s(S'0011001000'
p2271
I1
tp2272
F4.700000000000001
s(S'0111111100'
p2273
I0
tp2274
I-10
s(S'1010211110'
p2275
I1
tp2276
I-10
s(S'1222000000'
p2277
I2
tp2278
F-59.47
s(S'0002210000'
p2279
I0
tp2280
I-10
s(S'2022211110'
p2281
I1
tp2282
I-10
s(S'0000101110'
p2283
I2
tp2284
F546.6628870212829
s(S'0001000000'
p2285
I0
tp2286
I-10
s(S'0011011110'
p2287
I2
tp2288
F-12.480087550534652
s(S'2200011110'
p2289
I2
tp2290
F143.72028461332417
s(S'0001100100'
p2291
I2
tp2292
I7
s(S'1110101110'
p2293
I0
tp2294
F67.20546146177766
s(S'1111101010'
p2295
I0
tp2296
I27
s(S'1000001100'
p2297
I0
tp2298
F140.20069669108977
s(S'0100000100'
p2299
I0
tp2300
I-10
s(S'2222221000'
p2301
I2
tp2302
I-10
s(S'1111000000'
p2303
I0
tp2304
F2012.2493947095004
s(S'0000001010'
p2305
I2
tp2306
I-10
s(S'1110001100'
p2307
I0
tp2308
F125.29922376645126
s(S'0120000110'
p2309
I0
tp2310
F436.82518702163907
s(S'1101000000'
p2311
I1
tp2312
I-10
s(S'2200000010'
p2313
I2
tp2314
F4300.601074777608
s(S'0012000110'
p2315
I0
tp2316
F-12.1
s(S'0102221110'
p2317
I2
tp2318
I-10
s(S'0011010110'
p2319
I1
tp2320
F129.00620231339616
s(S'0000010010'
p2321
I2
tp2322
F3579.1773621166376
s(S'0111122010'
p2323
I0
tp2324
F0.0
s(S'0000001100'
p2325
I0
tp2326
F1422.1752069697195
s(S'0001010110'
p2327
I1
tp2328
F280.3501749491155
s(S'1110010110'
p2329
I2
tp2330
F24.91
s(S'1000012000'
p2331
I1
tp2332
F15467.975868241407
s(S'0200001110'
p2333
I1
tp2334
F24630.240038591735
s(S'0101101100'
p2335
I2
tp2336
I10
s(S'0111120110'
p2337
I2
tp2338
F0.0
s(S'0011111100'
p2339
I1
tp2340
F-0.20000000000000018
s(S'0000122220'
p2341
I1
tp2342
I-10
s(S'2111011100'
p2343
I2
tp2344
F55.762525814807205
s(S'0010100110'
p2345
I2
tp2346
F51.10684475551277
s(S'1201100000'
p2347
I0
tp2348
I-10
s(S'0210001110'
p2349
I0
tp2350
F5418.272320781956
s(S'1100020000'
p2351
I0
tp2352
I-10
s(S'0000111010'
p2353
I0
tp2354
F241.46251086850646
s(S'1222211110'
p2355
I2
tp2356
F-17.95467337
s(S'0011000000'
p2357
I2
tp2358
I-10
s(S'2221101110'
p2359
I2
tp2360
I-10
s(S'0020000010'
p2361
I0
tp2362
I-10
s(S'2210000000'
p2363
I1
tp2364
I-10
s(S'0220000110'
p2365
I0
tp2366
F1283.5789008762852
s(S'0120011110'
p2367
I2
tp2368
I-10
s(S'1110010000'
p2369
I0
tp2370
F119.5146560881513
s(S'0000012000'
p2371
I1
tp2372
I-10
s(S'0011000010'
p2373
I1
tp2374
F-12.1
s.