(dp0
(S'0101110000'
p1
I1
tp2
F1857.3828395052578
s(S'0000000110'
p3
I2
tp4
F1984.1469168855863
s(S'0222211110'
p5
I1
tp6
F3793.9472291175534
s(S'1201111100'
p7
I2
tp8
F68.93773164922018
s(S'0001001100'
p9
I2
tp10
F7.5
s(S'0111101010'
p11
I0
tp12
F117.44845759339869
s(S'1100000200'
p13
I1
tp14
I-10
s(S'0111111220'
p15
I2
tp16
F0.543665047743872
s(S'2221001110'
p17
I1
tp18
I-10
s(S'2110000000'
p19
I2
tp20
I-10
s(S'1100012000'
p21
I1
tp22
F-3.2232225303640076
s(S'0000011100'
p23
I2
tp24
F189.73451461299865
s(S'2210001110'
p25
I2
tp26
F-12.1
s(S'1110022000'
p27
I1
tp28
I-10
s(S'1111200000'
p29
I0
tp30
I-10
s(S'0001222220'
p31
I2
tp32
I-10
s(S'0210011110'
p33
I1
tp34
F183.68748506503127
s(S'0001110000'
p35
I2
tp36
F265.96763300483263
s(S'0120000010'
p37
I0
tp38
I-10
s(S'0022222210'
p39
I1
tp40
F805.1566067550058
s(S'0000120010'
p41
I2
tp42
F8971.248225805542
s(S'2211001110'
p43
I1
tp44
I4
s(S'2222222100'
p45
I1
tp46
I-10
s(S'0000000000'
p47
I2
tp48
F247.6888017105582
s(S'2222211110'
p49
I1
tp50
F1676.965822790116
s(S'0000200000'
p51
I2
tp52
F1227.566869426756
s(S'0002111110'
p53
I2
tp54
F10673.780310177433
s(S'2200000110'
p55
I0
tp56
F-17.262845799999997
s(S'1000011000'
p57
I0
tp58
F282.61759098806516
s(S'0000101110'
p59
I2
tp60
F616.4038151212834
s(S'0001101100'
p61
I2
tp62
F172.19753809511693
s(S'2000001010'
p63
I2
tp64
I-10
s(S'0000200010'
p65
I1
tp66
I-10
s(S'1001110000'
p67
I0
tp68
F274.9252422107801
s(S'2111011100'
p69
I2
tp70
F63.00140033841157
s(S'2222111100'
p71
I0
tp72
F-15.371480752374179
s(S'0002001110'
p73
I0
tp74
I-10
s(S'1110011000'
p75
I1
tp76
F437.5813567411975
s(S'1101101100'
p77
I0
tp78
F21.318720817843868
s(S'0022222220'
p79
I2
tp80
F247.8863082009238
s(S'0111000000'
p81
I0
tp82
F1676.7473184200499
s(S'2100001110'
p83
I1
tp84
F-22.592494358535035
s(S'1100221000'
p85
I1
tp86
I-10
s(S'1101100010'
p87
I1
tp88
I6
s(S'0002000000'
p89
I2
tp90
F1277.0011386120684
s(S'0022100000'
p91
I1
tp92
I-10
s(S'1112000000'
p93
I0
tp94
I-10
s(S'0010000110'
p95
I2
tp96
F-12.849699999999999
s(S'0001101100'
p97
I0
tp98
F-3.5107888881923963
s(S'1100000000'
p99
I1
tp100
F23.99955229345362
s(S'0110110110'
p101
I1
tp102
F84.1763110020469
s(S'0111001100'
p103
I1
tp104
F82.47183541829193
s(S'2000000010'
p105
I2
tp106
I-10
s(S'0200001110'
p107
I0
tp108
F-19.011419707593053
s(S'1222222000'
p109
I1
tp110
I-10
s(S'1111000010'
p111
I1
tp112
F2429.9579050473717
s(S'1110000100'
p113
I1
tp114
I-10
s(S'2220000010'
p115
I0
tp116
F-12.027520125613613
s(S'0002000010'
p117
I1
tp118
F683.9293321817918
s(S'1001110010'
p119
I0
tp120
I41
s(S'1222210000'
p121
I2
tp122
F-12.1
s(S'1110012000'
p123
I1
tp124
F-4.567282800585066
s(S'0110111110'
p125
I0
tp126
F311.60845988042786
s(S'1121111010'
p127
I0
tp128
I100
s(S'0000101110'
p129
I0
tp130
F-14.011
s(S'1100100000'
p131
I0
tp132
F305.9454045606589
s(S'0100111110'
p133
I2
tp134
F365.4619568335107
s(S'0000002220'
p135
I1
tp136
I-10
s(S'0000022220'
p137
I0
tp138
F3349.55780740846
s(S'1101101000'
p139
I0
tp140
F37.609936203479215
s(S'1000000200'
p141
I1
tp142
I-10
s(S'0012111110'
p143
I2
tp144
I-10
s(S'0001202210'
p145
I2
tp146
I-10
s(S'2221101110'
p147
I0
tp148
F-12.1
s(S'1111222220'
p149
I0
tp150
I21
s(S'0011000100'
p151
I1
tp152
F13.0
s(S'0011110110'
p153
I1
tp154
F64.48337257447572
s(S'1000101110'
p155
I0
tp156
I-10
s(S'1001111010'
p157
I1
tp158
F160.5328462177859
s(S'0002200000'
p159
I2
tp160
F-12.1
s(S'2222222220'
p161
I1
tp162
I-10
s(S'1000001000'
p163
I2
tp164
I-10
s(S'0010011110'
p165
I0
tp166
F-12.1
s(S'1111111100'
p167
I2
tp168
I-10
s(S'0110111000'
p169
I2
tp170
F412.40486546316583
s(S'0222221110'
p171
I1
tp172
F-14.011
s(S'0111100000'
p173
I1
tp174
F516.0768169377793
s(S'0122222110'
p175
I0
tp176
I-15
s(S'1100110110'
p177
I2
tp178
I-10
s(S'0022200000'
p179
I1
tp180
I-10
s(S'1111100000'
p181
I1
tp182
F485.76855913686217
s(S'0001210000'
p183
I2
tp184
I-10
s(S'2111110010'
p185
I1
tp186
F8.0
s(S'0100111010'
p187
I2
tp188
F89.70184232608064
s(S'2222220000'
p189
I0
tp190
F7650.469688013776
s(S'0011100110'
p191
I2
tp192
F64.4104786578576
s(S'0101100000'
p193
I1
tp194
F-0.5208412781883851
s(S'1120011110'
p195
I1
tp196
F1019.1712895918447
s(S'2222221110'
p197
I0
tp198
I-10
s(S'2100011100'
p199
I0
tp200
F838.4829825575881
s(S'2222100000'
p201
I0
tp202
I-10
s(S'1010111010'
p203
I2
tp204
I6
s(S'2220000110'
p205
I1
tp206
F-9.115617489426757
s(S'2222000000'
p207
I2
tp208
F-14.090862999999999
s(S'1000002000'
p209
I0
tp210
I-10
s(S'1111120000'
p211
I1
tp212
I0
s(S'1111110110'
p213
I0
tp214
F96.14667635728696
s(S'2220100000'
p215
I2
tp216
I-10
s(S'1111000200'
p217
I2
tp218
I76290
s(S'1000000000'
p219
I0
tp220
F2384.5682343435737
s(S'1222221110'
p221
I2
tp222
F-12.1
s(S'1100000010'
p223
I2
tp224
I-10
s(S'1222222000'
p225
I0
tp226
F661.2090000000001
s(S'2220100000'
p227
I1
tp228
I-10
s(S'0000101110'
p229
I1
tp230
F-11.469999999999999
s(S'2001110110'
p231
I0
tp232
I0
s(S'2211111010'
p233
I2
tp234
F50.70256310771327
s(S'1011111120'
p235
I1
tp236
F31.224492332399933
s(S'0011101100'
p237
I0
tp238
F92.38425532352713
s(S'0022111000'
p239
I1
tp240
I-10
s(S'0012000010'
p241
I1
tp242
F263.83266079512924
s(S'1101111100'
p243
I2
tp244
F57.89236310757697
s(S'1111012000'
p245
I0
tp246
I-10
s(S'1111111000'
p247
I2
tp248
F-1.1799999999999997
s(S'0000001110'
p249
I1
tp250
F-14.011
s(S'1000220000'
p251
I1
tp252
I-10
s(S'0111110110'
p253
I0
tp254
F79.07613762942377
s(S'0111010110'
p255
I0
tp256
I0
s(S'0001110010'
p257
I1
tp258
F190.27796587803886
s(S'0001022220'
p259
I1
tp260
I-10
s(S'1200011110'
p261
I2
tp262
I-10
s(S'2100000020'
p263
I1
tp264
I-10
s(S'1100021000'
p265
I0
tp266
I-10
s(S'1221111110'
p267
I0
tp268
I-15
s(S'0100000010'
p269
I1
tp270
F6954.4838828564625
s(S'0000111100'
p271
I1
tp272
F67.00282798495499
s(S'2222111100'
p273
I2
tp274
F-16.563939713546365
s(S'1100111100'
p275
I1
tp276
F127.40536948446179
s(S'0021111000'
p277
I2
tp278
I-10
s(S'1111101100'
p279
I2
tp280
F63.15620658290101
s(S'0200000110'
p281
I2
tp282
F-12.1
s(S'0001200000'
p283
I2
tp284
F-12.1
s(S'1000110010'
p285
I1
tp286
I-10
s(S'1221111000'
p287
I2
tp288
I22
s(S'0020001110'
p289
I1
tp290
I-10
s(S'1002000010'
p291
I0
tp292
I-10
s(S'1100011100'
p293
I0
tp294
F203.55195475129358
s(S'0022222110'
p295
I2
tp296
F3841.486366947388
s(S'1102100000'
p297
I1
tp298
F-12.1
s(S'0011010110'
p299
I1
tp300
F111.31744713838043
s(S'0001211110'
p301
I1
tp302
I-10
s(S'2222200000'
p303
I1
tp304
F44.048708005919195
s(S'1111010010'
p305
I0
tp306
I0
s(S'0001101110'
p307
I1
tp308
F91.16745404577568
s(S'0000100010'
p309
I2
tp310
I-10
s(S'0111120010'
p311
I0
tp312
F4.610853226670033
s(S'1000001000'
p313
I0
tp314
I-10
s(S'0001000000'
p315
I2
tp316
F1536.6447579786227
s(S'0122000110'
p317
I1
tp318
F-12.1
s(S'0000222110'
p319
I1
tp320
I-10
s(S'1111110100'
p321
I1
tp322
F2703.938659002182
s(S'2111000000'
p323
I0
tp324
I-10
s(S'1000001100'
p325
I2
tp326
I-10
s(S'0111010110'
p327
I2
tp328
F46.48042620218439
s(S'0000111110'
p329
I1
tp330
F-19.403110319441883
s(S'0010101100'
p331
I2
tp332
I7
s(S'2222221000'
p333
I0
tp334
F-12.1
s(S'2100000010'
p335
I0
tp336
F944.7308830293845
s(S'0122222210'
p337
I2
tp338
F-10.0
s(S'1100101100'
p339
I1
tp340
F210.28923914117578
s(S'0221000000'
p341
I2
tp342
F510.50700660345007
s(S'0010100000'
p343
I2
tp344
F411.4111278821704
s(S'0001001010'
p345
I2
tp346
I22
s(S'1011101120'
p347
I0
tp348
F20.524945738598213
s(S'0022210000'
p349
I1
tp350
I-10
s(S'0101000000'
p351
I1
tp352
F1131.9361217413968
s(S'0112001110'
p353
I0
tp354
I-10
s(S'0122200000'
p355
I0
tp356
I-10
s(S'1120001110'
p357
I1
tp358
I-10
s(S'1000000010'
p359
I1
tp360
F2076.617237853322
s(S'0022001110'
p361
I0
tp362
I-10
s(S'0010111000'
p363
I2
tp364
F94.08018669737645
s(S'1110220000'
p365
I1
tp366
I-10
s(S'1112222220'
p367
I0
tp368
I-10
s(S'2100011110'
p369
I1
tp370
F906.0676448388317
s(S'1100010110'
p371
I2
tp372
I6
s(S'0110111100'
p373
I1
tp374
F382.3870480968515
s(S'1111011200'
p375
I0
tp376
I-5
s(S'1110000010'
p377
I0
tp378
F9970.5541808829
s(S'0022110000'
p379
I1
tp380
I-10
s(S'1010000000'
p381
I2
tp382
I-10
s(S'0000020000'
p383
I1
tp384
F478.043264779918
s(S'1122000000'
p385
I2
tp386
I-10
s(S'0201111010'
p387
I2
tp388
F34.584265225898534
s(S'0010000100'
p389
I0
tp390
I34
s(S'1222211110'
p391
I0
tp392
F374.37207010713814
s(S'0200000010'
p393
I1
tp394
F1691.3531753680104
s(S'0111010010'
p395
I0
tp396
F65.49715813221047
s(S'0122111110'
p397
I1
tp398
I-10
s(S'0020000010'
p399
I2
tp400
I-10
s(S'1000111110'
p401
I2
tp402
F197.78081895142284
s(S'1220001110'
p403
I1
tp404
F3529.614501259384
s(S'0220000110'
p405
I2
tp406
F-14.76657899677711
s(S'0120011110'
p407
I0
tp408
F1795.9288362392952
s(S'1110110000'
p409
I1
tp410
F390.8793924155285
s(S'2211011110'
p411
I2
tp412
I-10
s(S'1111002000'
p413
I1
tp414
I-10
s(S'0110101110'
p415
I0
tp416
F148.10828231060216
s(S'1101011000'
p417
I2
tp418
F12.189948518210759
s(S'0111111110'
p419
I2
tp420
F-12.1
s(S'0111112220'
p421
I2
tp422
F0.14088194873886206
s(S'0111100110'
p423
I0
tp424
F79.77947347885846
s(S'1100111000'
p425
I2
tp426
F132.25863398026914
s(S'1011011000'
p427
I1
tp428
I16
s(S'1010000010'
p429
I2
tp430
I-10
s(S'0010001110'
p431
I2
tp432
F340.764842201081
s(S'1011101110'
p433
I0
tp434
F76.47901324676727
s(S'0220001110'
p435
I1
tp436
F311.80966169096916
s(S'1121111110'
p437
I0
tp438
I-10
s(S'1111001200'
p439
I2
tp440
F2.17231
s(S'0001000110'
p441
I2
tp442
I-10
s(S'0000000000'
p443
I0
tp444
F6035.8580495099595
s(S'0010001100'
p445
I1
tp446
F46.438039489548956
s(S'2200000110'
p447
I2
tp448
F1448.4299069264111
s(S'1100002000'
p449
I0
tp450
F203.67630466459548
s(S'0000120110'
p451
I2
tp452
I-10
s(S'1000011110'
p453
I1
tp454
F-21.308696042583815
s(S'1010211110'
p455
I1
tp456
I-10
s(S'1011111000'
p457
I0
tp458
F269.46231244086925
s(S'0000202210'
p459
I2
tp460
I-10
s(S'1110000000'
p461
I1
tp462
F-12.372698153447214
s(S'0000110000'
p463
I1
tp464
I-10
s(S'0021000110'
p465
I1
tp466
I-10
s(S'0101111110'
p467
I2
tp468
I-10
s(S'0000220000'
p469
I1
tp470
F-12.1
s(S'0220000000'
p471
I2
tp472
F5391.069327550686
s(S'0020000110'
p473
I0
tp474
I-10
s(S'1222210000'
p475
I1
tp476
F-12.1
s(S'0111001110'
p477
I0
tp478
F108.29778632312133
s(S'2222222210'
p479
I0
tp480
I-10
s(S'1220011110'
p481
I1
tp482
I-10
s(S'1011100000'
p483
I2
tp484
F615.6847999731579
s(S'2221100000'
p485
I2
tp486
I-10
s(S'1100101110'
p487
I0
tp488
F98.25811046824701
s(S'2211000110'
p489
I1
tp490
I-10
s(S'0002000000'
p491
I0
tp492
I-10
s(S'2001000000'
p493
I1
tp494
I-10
s(S'2011001110'
p495
I2
tp496
I-10
s(S'0020011110'
p497
I2
tp498
I-10
s(S'0011001110'
p499
I1
tp500
I-10
s(S'0011101110'
p501
I2
tp502
F64.90788700917402
s(S'0111112210'
p503
I2
tp504
I0
s(S'0222222220'
p505
I1
tp506
F-14.011
s(S'0010011110'
p507
I2
tp508
F-12.1
s(S'0200000000'
p509
I1
tp510
I-10
s(S'1100000010'
p511
I0
tp512
I-10
s(S'0000001000'
p513
I1
tp514
I-65
s(S'2220000010'
p515
I2
tp516
F826.7873355544157
s(S'0111100100'
p517
I1
tp518
I-10
s(S'0112000110'
p519
I2
tp520
F-12.1
s(S'1110111100'
p521
I2
tp522
F153.68871261108177
s(S'1110111010'
p523
I1
tp524
F110.50863500850187
s(S'1100100000'
p525
I2
tp526
I-10
s(S'1102200000'
p527
I0
tp528
I-10
s(S'0110000110'
p529
I1
tp530
F-14.011
s(S'0001001000'
p531
I0
tp532
I-10
s(S'1110221000'
p533
I2
tp534
I-10
s(S'0011101010'
p535
I2
tp536
F66.13512012204056
s(S'0111110010'
p537
I1
tp538
F101.71990931575755
s(S'0000022210'
p539
I0
tp540
I-10
s(S'1002000000'
p541
I1
tp542
I-10
s(S'2001000000'
p543
I0
tp544
I-10
s(S'0220001110'
p545
I2
tp546
I-10
s(S'0002200000'
p547
I0
tp548
F54.14308378628198
s(S'0011011000'
p549
I1
tp550
F139.1564162938674
s(S'1110010100'
p551
I1
tp552
F72.74675931623248
s(S'1111111100'
p553
I0
tp554
F77.94887314128833
s(S'0222222210'
p555
I2
tp556
F2815.1438253364313
s(S'0011200000'
p557
I2
tp558
I-10
s(S'0000100000'
p559
I1
tp560
F2386.584929117776
s(S'0111111200'
p561
I1
tp562
F5.7
s(S'0022000010'
p563
I0
tp564
F-12.1
s(S'0000011110'
p565
I1
tp566
F-23.915115186669375
s(S'0210001110'
p567
I0
tp568
F4003.1528001521365
s(S'1022220000'
p569
I1
tp570
F-10.0
s(S'2222222110'
p571
I0
tp572
F993.9073577611207
s(S'0112000110'
p573
I1
tp574
F-11.885819650856579
s(S'2222210000'
p575
I2
tp576
F-12.1
s(S'0100111100'
p577
I0
tp578
F185.31280391378988
s(S'1000100000'
p579
I1
tp580
F-8.2143
s(S'1222100000'
p581
I2
tp582
I-10
s(S'2222221110'
p583
I2
tp584
I-10
s(S'2101110110'
p585
I0
tp586
F110.163556122623
s(S'1111010000'
p587
I0
tp588
F137.39455942311827
s(S'1101111000'
p589
I0
tp590
F826.7132857726705
s(S'2222000000'
p591
I0
tp592
F-15.750009999999998
s(S'1000002000'
p593
I2
tp594
I-10
s(S'0111122000'
p595
I1
tp596
I0
s(S'1022000000'
p597
I0
tp598
I-10
s(S'1222000000'
p599
I1
tp600
F5587.319673432432
s(S'1222221110'
p601
I0
tp602
F2616.8650101927933
s(S'0221111110'
p603
I0
tp604
F-13.6
s(S'2211001110'
p605
I2
tp606
I-10
s(S'0111001200'
p607
I2
tp608
F35.604220098323445
s(S'0100010000'
p609
I1
tp610
I-10
s(S'0222100000'
p611
I1
tp612
I7890
s(S'1000111000'
p613
I1
tp614
F130.3622855146981
s(S'0000000010'
p615
I1
tp616
F1747.5947130299724
s(S'1101011110'
p617
I0
tp618
F115.52596691380403
s(S'0121111110'
p619
I0
tp620
I-10
s(S'2222111110'
p621
I1
tp622
F-14.0838091
s(S'0000001010'
p623
I0
tp624
F2495.286287351462
s(S'1010111100'
p625
I0
tp626
F91.61354687097733
s(S'0002222110'
p627
I0
tp628
F163.2936251887271
s(S'0000110110'
p629
I0
tp630
F660.7328942191863
s(S'0110000010'
p631
I2
tp632
I-10
s(S'0001011100'
p633
I0
tp634
F115.28709591943242
s(S'0022100000'
p635
I2
tp636
I-10
s(S'0011001100'
p637
I0
tp638
F112.5594939341526
s(S'0010010010'
p639
I1
tp640
I10
s(S'2200001110'
p641
I0
tp642
F8560.785307889839
s(S'0101001110'
p643
I0
tp644
F54.16245745064716
s(S'1100111010'
p645
I1
tp646
F207.15508407944904
s(S'0101011100'
p647
I2
tp648
F376.08887534188534
s(S'1010100000'
p649
I1
tp650
F85.61413188445829
s(S'0110110000'
p651
I0
tp652
F297.1146688102452
s(S'1222222220'
p653
I0
tp654
I-10
s(S'0000100110'
p655
I0
tp656
F-10.804587944927375
s(S'1110000020'
p657
I1
tp658
F294.0472333884339
s(S'0220000010'
p659
I1
tp660
I-10
s(S'1110111000'
p661
I0
tp662
F180.45198266570048
s(S'1200001110'
p663
I1
tp664
F-16.367350085749393
s(S'1111120000'
p665
I0
tp666
I0
s(S'2000001110'
p667
I1
tp668
F772.9688086190176
s(S'1000000110'
p669
I2
tp670
F-10.0
s(S'0100000000'
p671
I0
tp672
I-10
s(S'1111110010'
p673
I0
tp674
F120.2686997629783
s(S'0001200000'
p675
I0
tp676
F-12.1
s(S'0010011100'
p677
I2
tp678
F173.68315250877336
s(S'1111000100'
p679
I0
tp680
F-10.0
s(S'2101110010'
p681
I1
tp682
I9
s(S'0020000000'
p683
I0
tp684
I-10
s(S'1110001000'
p685
I1
tp686
F477.4527814823805
s(S'1100100110'
p687
I1
tp688
F54.535792560085724
s(S'1011100000'
p689
I0
tp690
I-10
s(S'2200011110'
p691
I2
tp692
F1344.242635877941
s(S'2011110110'
p693
I2
tp694
F20.500482460776773
s(S'1222220000'
p695
I1
tp696
I-10
s(S'1000000110'
p697
I0
tp698
F950.373450745955
s(S'0110111010'
p699
I1
tp700
F78.50396926152963
s(S'1000000110'
p701
I1
tp702
F-12.1
s(S'0000100010'
p703
I0
tp704
F-9.00401162194078
s(S'0111120010'
p705
I2
tp706
F0.0
s(S'0222211110'
p707
I2
tp708
I-15
s(S'1100220000'
p709
I1
tp710
I-10
s(S'1110101100'
p711
I0
tp712
F127.68884255004903
s(S'1100000200'
p713
I2
tp714
I-10
s(S'1110100000'
p715
I1
tp716
I-10
s(S'2221111000'
p717
I2
tp718
F30.161264928893644
s(S'0001011110'
p719
I0
tp720
I-10
s(S'2100111010'
p721
I2
tp722
I9
s(S'2000000020'
p723
I1
tp724
I-10
s(S'0010010110'
p725
I0
tp726
F30.5
s(S'0112001110'
p727
I1
tp728
I-10
s(S'1000111110'
p729
I1
tp730
F0.6262221903292438
s(S'0010000000'
p731
I2
tp732
F1133.9744733911023
s(S'1101001110'
p733
I2
tp734
F141.87822628597792
s(S'0100101000'
p735
I2
tp736
I5
s(S'1111000000'
p737
I2
tp738
F85.17493490556379
s(S'2221100010'
p739
I0
tp740
I-10
s(S'0022211110'
p741
I0
tp742
I-10
s(S'0002221110'
p743
I2
tp744
I-10
s(S'2110011100'
p745
I0
tp746
I12
s(S'1222210000'
p747
I0
tp748
F47.16686106783658
s(S'1011100000'
p749
I1
tp750
F259.6801161829786
s(S'2210000110'
p751
I2
tp752
F711.987377550453
s(S'1001100110'
p753
I0
tp754
I15
s(S'1011111110'
p755
I2
tp756
F459.33178446099373
s(S'2211110010'
p757
I2
tp758
F46.43579201172756
s(S'1101110000'
p759
I2
tp760
F286.9738832167357
s(S'0011100100'
p761
I2
tp762
F72.92217340184376
s(S'0111011010'
p763
I1
tp764
I11
s(S'0110011110'
p765
I2
tp766
I-10
s(S'1112222220'
p767
I2
tp768
F8087.0
s(S'0001122220'
p769
I0
tp770
I-15
s(S'1022220000'
p771
I2
tp772
I-10
s(S'0122222210'
p773
I1
tp774
F289.9449303716836
s(S'0000010110'
p775
I0
tp776
F666.1041359736728
s(S'0002000010'
p777
I0
tp778
F-10.0
s(S'1110000010'
p779
I2
tp780
F-12.1
s(S'0110011100'
p781
I1
tp782
F195.486397780507
s(S'1010000000'
p783
I0
tp784
I-10
s(S'0111122220'
p785
I1
tp786
I-10
s(S'2010001110'
p787
I2
tp788
I-10
s(S'1201111100'
p789
I1
tp790
I-10
s(S'2200111100'
p791
I2
tp792
I-10
s(S'0022000100'
p793
I2
tp794
I-10
s(S'0112222220'
p795
I1
tp796
I-10
s(S'0000020010'
p797
I0
tp798
I-10
s(S'1000111110'
p799
I0
tp800
I-10
s(S'1100000110'
p801
I1
tp802
F1875.9041507149352
s(S'0010000110'
p803
I1
tp804
I-10
s(S'1111200000'
p805
I1
tp806
I-10
s(S'1100001110'
p807
I1
tp808
F-13.15873910636307
s(S'2220000000'
p809
I0
tp810
I-10
s(S'0120001110'
p811
I1
tp812
F-10.0
s(S'2211111000'
p813
I1
tp814
F38.09755436152391
s(S'1111110000'
p815
I0
tp816
F-15.245071959746157
s(S'1111110000'
p817
I1
tp818
F1891.072408637055
s(S'0010111010'
p819
I2
tp820
F68.73576293077237
s(S'1110000100'
p821
I2
tp822
F27.11716912800675
s(S'0000110100'
p823
I1
tp824
I3
s(S'0101110010'
p825
I2
tp826
F95.58395396359808
s(S'0111111110'
p827
I0
tp828
F125.44089206279105
s(S'1111000010'
p829
I2
tp830
I-10
s(S'2221100110'
p831
I1
tp832
I-10
s(S'2000011110'
p833
I0
tp834
F1032.9901785656034
s(S'0021111110'
p835
I0
tp836
I-10
s(S'0001111110'
p837
I1
tp838
F68.32612178362248
s(S'0222111110'
p839
I1
tp840
I-15
s(S'2210000110'
p841
I1
tp842
I-10
s(S'0110110010'
p843
I1
tp844
F33.40622335211174
s(S'1122220000'
p845
I2
tp846
F-14.3197
s(S'2201000000'
p847
I2
tp848
I-10
s(S'2100000110'
p849
I0
tp850
I-10
s(S'0001000110'
p851
I0
tp852
I-10
s(S'0001100110'
p853
I2
tp854
F199.15596014709323
s(S'0000020220'
p855
I1
tp856
I36985
s(S'0111011000'
p857
I0
tp858
F234.95618865486765
s(S'2100000000'
p859
I2
tp860
F1930.1814785245688
s(S'1100000020'
p861
I1
tp862
F1300.7309261129794
s(S'1000010000'
p863
I0
tp864
I-10
s(S'2110000000'
p865
I1
tp866
F2297.3582938930194
s(S'0101011110'
p867
I1
tp868
F62.00015040124264
s(S'0111100000'
p869
I2
tp870
I-10
s(S'0002222210'
p871
I0
tp872
I-10
s(S'0001222220'
p873
I1
tp874
I-10
s(S'0101111110'
p875
I0
tp876
I-10
s(S'2000011110'
p877
I1
tp878
F-15.241361927042957
s(S'2111000000'
p879
I2
tp880
I-10
s(S'1111001010'
p881
I2
tp882
F21.493558527508906
s(S'1111000020'
p883
I2
tp884
I-10
s(S'0220000110'
p885
I0
tp886
F1001.3443998580374
s(S'0022111110'
p887
I2
tp888
F-16.12
s(S'2222211000'
p889
I1
tp890
I-10
s(S'0011111010'
p891
I1
tp892
F53.29867380642486
s(S'0022222110'
p893
I0
tp894
F-12.1
s(S'0210111100'
p895
I1
tp896
I28
s(S'1120011110'
p897
I2
tp898
I-10
s(S'1101110110'
p899
I2
tp900
F102.87306128297232
s(S'0010111100'
p901
I2
tp902
F83.77807819953381
s(S'1101111110'
p903
I2
tp904
F62.07059756957602
s(S'1111001000'
p905
I2
tp906
F17.511164217945424
s(S'2222220000'
p907
I1
tp908
I-10
s(S'1000110010'
p909
I0
tp910
I0
s(S'2220000110'
p911
I2
tp912
F785.8559720081067
s(S'1110011110'
p913
I1
tp914
F193.14555045141282
s(S'2211111110'
p915
I0
tp916
I-10
s(S'1120111110'
p917
I1
tp918
F-11.093756146978166
s(S'2222222200'
p919
I1
tp920
I-10
s(S'0111000100'
p921
I2
tp922
F63.42814527172577
s(S'0000211110'
p923
I1
tp924
I-10
s(S'2211111110'
p925
I1
tp926
F-3.703702999999999
s(S'1000200000'
p927
I0
tp928
I-10
s(S'0200011110'
p929
I1
tp930
F3779.668347556813
s(S'2222100000'
p931
I2
tp932
F-11.469999999999999
s(S'1102200000'
p933
I2
tp934
F-12.1
s(S'0220001010'
p935
I1
tp936
I-10
s(S'0000000200'
p937
I2
tp938
I-10
s(S'0100001100'
p939
I0
tp940
I23
s(S'0001000010'
p941
I0
tp942
F3097.1913534506857
s(S'1002211110'
p943
I2
tp944
I-10
s(S'0112200000'
p945
I2
tp946
I-10
s(S'1001000000'
p947
I1
tp948
F936.5786002195907
s(S'0120111110'
p949
I1
tp950
I-10
s(S'1111111000'
p951
I1
tp952
F125.11363751152048
s(S'0002100000'
p953
I2
tp954
I-10
s(S'2220000100'
p955
I2
tp956
I-10
s(S'0021000010'
p957
I1
tp958
I-10
s(S'1111002100'
p959
I0
tp960
I-10
s(S'1200011110'
p961
I1
tp962
I-10
s(S'2200100000'
p963
I1
tp964
I-10
s(S'1112222000'
p965
I0
tp966
F17807.709850348914
s(S'1000000100'
p967
I0
tp968
I-10
s(S'1122222200'
p969
I1
tp970
I-10
s(S'1201000000'
p971
I2
tp972
I-10
s(S'1011110000'
p973
I1
tp974
F317.55023655118157
s(S'1222220000'
p975
I2
tp976
F5518.621152807781
s(S'1000001110'
p977
I1
tp978
F437.194206237512
s(S'0000120000'
p979
I2
tp980
I-10
s(S'2100000000'
p981
I0
tp982
F-12.1
s(S'0222222110'
p983
I0
tp984
F-11.512768033907228
s(S'0001220000'
p985
I0
tp986
I-10
s(S'0222222110'
p987
I1
tp988
F5580.868403151139
s(S'1002200000'
p989
I1
tp990
I-10
s(S'1100011000'
p991
I0
tp992
F333.1330859929861
s(S'2222222000'
p993
I1
tp994
I-10
s(S'0110001000'
p995
I0
tp996
I40
s(S'0111111100'
p997
I1
tp998
F61.40642873065691
s(S'0000011120'
p999
I1
tp1000
I-15
s(S'1101111010'
p1001
I1
tp1002
F294.84889909616373
s(S'1022210000'
p1003
I0
tp1004
I-10
s(S'0221111110'
p1005
I2
tp1006
F106.93317946864205
s(S'2211001110'
p1007
I0
tp1008
I-10
s(S'0001000000'
p1009
I1
tp1010
F-9.265743849815738
s(S'0011011110'
p1011
I1
tp1012
F925.8944160022286
s(S'0210011110'
p1013
I2
tp1014
I-10
s(S'0111110000'
p1015
I2
tp1016
I-10
s(S'0101100110'
p1017
I1
tp1018
F66.11681621183575
s(S'2221110110'
p1019
I2
tp1020
I-10
s(S'0002222110'
p1021
I1
tp1022
I-15
s(S'0121111110'
p1023
I2
tp1024
I-10
s(S'1000001100'
p1025
I1
tp1026
I-10
s(S'0022000110'
p1027
I1
tp1028
I-10
s(S'0100110000'
p1029
I0
tp1030
I0
s(S'2111100000'
p1031
I1
tp1032
I-10
s(S'1100011110'
p1033
I2
tp1034
F142.45355475689846
s(S'2200001110'
p1035
I2
tp1036
F-31.322909278791602
s(S'0022100000'
p1037
I0
tp1038
I-10
s(S'0120000110'
p1039
I1
tp1040
F-12.47738682698546
s(S'1101000000'
p1041
I2
tp1042
I5
s(S'0012000000'
p1043
I2
tp1044
F1112.542430156258
s(S'0012000110'
p1045
I1
tp1046
F762.504215742309
s(S'0101000000'
p1047
I2
tp1048
I0
s(S'1122222210'
p1049
I0
tp1050
F-10.0
s(S'0110001110'
p1051
I0
tp1052
F1133.2798415502557
s(S'0000010010'
p1053
I1
tp1054
F-12.1
s(S'0111122010'
p1055
I1
tp1056
F0.0
s(S'0000100110'
p1057
I2
tp1058
F-12.1
s(S'1000000010'
p1059
I2
tp1060
F-10.0
s(S'0011010000'
p1061
I0
tp1062
F785.2306974931334
s(S'0001100000'
p1063
I1
tp1064
F-2.0258910927252396
s(S'1122221000'
p1065
I2
tp1066
I-10
s(S'1111121110'
p1067
I1
tp1068
I0
s(S'2000000000'
p1069
I0
tp1070
F-12.1
s(S'0000122220'
p1071
I2
tp1072
I-10
s(S'1122000000'
p1073
I1
tp1074
F1882.68103376908
s(S'0100001110'
p1075
I1
tp1076
F-11.72905347300075
s(S'2111101100'
p1077
I1
tp1078
F55.199638495437284
s(S'1111000100'
p1079
I2
tp1080
F115.32254620072376
s(S'0020000000'
p1081
I2
tp1082
F-7.3158115
s(S'2200000000'
p1083
I1
tp1084
F2882.9946867409517
s(S'0120000110'
p1085
I0
tp1086
F1542.3711999299835
s(S'1001011000'
p1087
I1
tp1088
F100.80324872473474
s(S'0100010000'
p1089
I0
tp1090
I-10
s(S'0011000000'
p1091
I1
tp1092
F-13.595900209581957
s(S'0111110000'
p1093
I0
tp1094
F334.24775466273513
s(S'0020000010'
p1095
I1
tp1096
I-10
s(S'2210000000'
p1097
I2
tp1098
I-10
s(S'1220100000'
p1099
I1
tp1100
I-10
s(S'0010222110'
p1101
I1
tp1102
I-10
s(S'0100010100'
p1103
I1
tp1104
I7
s(S'1100101000'
p1105
I1
tp1106
F80.09369693799712
s(S'1110012000'
p1107
I2
tp1108
I-10
s(S'0000000110'
p1109
I1
tp1110
F-15.3487
s(S'0222211110'
p1111
I0
tp1112
I-10
s(S'0111001010'
p1113
I1
tp1114
F248.3545902327536
s(S'1100000200'
p1115
I0
tp1116
F220.85582308515583
s(S'1111010110'
p1117
I2
tp1118
F612.9282661639061
s(S'0001011110'
p1119
I2
tp1120
I-10
s(S'2210001110'
p1121
I1
tp1122
I-10
s(S'2100000010'
p1123
I1
tp1124
F8.303199834170853
s(S'0000001110'
p1125
I0
tp1126
F569.9135033673833
s(S'2201000000'
p1127
I0
tp1128
I-10
s(S'1110000000'
p1129
I2
tp1130
F-12.872187224863707
s(S'0111111010'
p1131
I2
tp1132
F66.7325698110624
s(S'1101100000'
p1133
I2
tp1134
F445.060597630576
s(S'0001002210'
p1135
I2
tp1136
I-10
s(S'0010000000'
p1137
I0
tp1138
I-10
s(S'0000120010'
p1139
I1
tp1140
I-10
s(S'2222222100'
p1141
I2
tp1142
I-10
s(S'0022211110'
p1143
I2
tp1144
I-10
s(S'0002221110'
p1145
I0
tp1146
I-10
s(S'0000101000'
p1147
I2
tp1148
I-10
s(S'0000200000'
p1149
I1
tp1150
I-10
s(S'0221110000'
p1151
I1
tp1152
I-10
s(S'0101111010'
p1153
I1
tp1154
F84.7673343014636
s(S'0100110000'
p1155
I2
tp1156
F286.769505298047
s(S'0001210000'
p1157
I0
tp1158
I-10
s(S'1111110100'
p1159
I2
tp1160
I-10
s(S'0021000110'
p1161
I2
tp1162
I-10
s(S'2001111110'
p1163
I1
tp1164
F39.93861761774661
s(S'1001111110'
p1165
I0
tp1166
I-10
s(S'0220000110'
p1167
I1
tp1168
F-13.296578996777107
s(S'1022220000'
p1169
I0
tp1170
I-10
s(S'0001111000'
p1171
I2
tp1172
F141.46182400193499
s(S'0000011000'
p1173
I1
tp1174
F743.5101500886581
s(S'0111110100'
p1175
I0
tp1176
I23
s(S'0002000010'
p1177
I2
tp1178
I-250
s(S'0022222220'
p1179
I1
tp1180
F-14.61811
s(S'0111101100'
p1181
I2
tp1182
F67.48573133688816
s(S'2100001110'
p1183
I0
tp1184
F-20.115505729318336
s(S'0001110100'
p1185
I1
tp1186
F123.12345822109451
s(S'2010001110'
p1187
I0
tp1188
I-10
s(S'2200111100'
p1189
I0
tp1190
I12
s(S'1000000100'
p1191
I1
tp1192
F-12.1
s(S'1101010000'
p1193
I0
tp1194
F182.00399148430972
s(S'2221111100'
p1195
I0
tp1196
F30.129209015388827
s(S'0000000100'
p1197
I0
tp1198
I-10
s(S'0220000000'
p1199
I1
tp1200
F-12.1
s(S'0011111100'
p1201
I0
tp1202
F138.53117333003698
s(S'2222111000'
p1203
I0
tp1204
I0
s(S'2220000000'
p1205
I2
tp1206
I-10
s(S'0000111110'
p1207
I0
tp1208
F-5.909308446106261
s(S'0222222220'
p1209
I2
tp1210
F-14.011
s(S'0001101000'
p1211
I0
tp1212
F256.4009916790003
s(S'1111110000'
p1213
I2
tp1214
F-15.036057125740859
s(S'0002222220'
p1215
I1
tp1216
F-15.668452819761608
s(S'0111001120'
p1217
I2
tp1218
F19.640791366782835
s(S'1110000100'
p1219
I0
tp1220
I-10
s(S'1001110100'
p1221
I2
tp1222
F132.60680969925465
s(S'2220000010'
p1223
I1
tp1224
I-10
s(S'1110011100'
p1225
I2
tp1226
F116.58327024011471
s(S'2221111110'
p1227
I1
tp1228
F26.607593903727047
s(S'1110012000'
p1229
I0
tp1230
I-10
s(S'1220011110'
p1231
I2
tp1232
F42.21738448265126
s(S'0100000000'
p1233
I2
tp1234
I-10
s(S'0100000010'
p1235
I2
tp1236
I-10
s(S'0111101110'
p1237
I0
tp1238
F74.61163628106641
s(S'1111001110'
p1239
I2
tp1240
F114.26931706025627
s(S'0110000110'
p1241
I2
tp1242
F4584.848278836449
s(S'0000001110'
p1243
I2
tp1244
F-13.437699999999998
s(S'1222222110'
p1245
I0
tp1246
I-10
s(S'0111000110'
p1247
I0
tp1248
F69.42570924338625
s(S'2100000110'
p1249
I2
tp1250
F-12.849699999999999
s(S'0111001000'
p1251
I2
tp1252
F184.44010591149126
s(S'0100011110'
p1253
I0
tp1254
I-10
s(S'0100000110'
p1255
I1
tp1256
F1212.726144053242
s(S'0111000000'
p1257
I1
tp1258
F-2.8822699895089468
s(S'0111111000'
p1259
I1
tp1260
F1013.7116263574662
s(S'1000010000'
p1261
I2
tp1262
I-10
s(S'0012000000'
p1263
I1
tp1264
I-10
s(S'2222222220'
p1265
I0
tp1266
F-12.1
s(S'1221000000'
p1267
I1
tp1268
I-10
s(S'0010011110'
p1269
I1
tp1270
F372.9095182352405
s(S'0011100000'
p1271
I1
tp1272
F461.77068462306545
s(S'0222221110'
p1273
I2
tp1274
F-14.011
s(S'1100200000'
p1275
I1
tp1276
I-10
s(S'0002222210'
p1277
I2
tp1278
F-10.0
s(S'1102220000'
p1279
I0
tp1280
F-12.1
s(S'0001110110'
p1281
I0
tp1282
F123.41569798247639
s(S'0022200000'
p1283
I0
tp1284
F-10.0
s(S'0102221110'
p1285
I1
tp1286
I-10
s(S'2221100010'
p1287
I1
tp1288
I-10
s(S'1002100000'
p1289
I0
tp1290
I-10
s(S'0110100000'
p1291
I0
tp1292
F606.2284737548509
s(S'0022111110'
p1293
I0
tp1294
F-10.0
s(S'1010011110'
p1295
I2
tp1296
F83.81335770227045
s(S'0111000010'
p1297
I0
tp1298
F83.64542171131001
s(S'0100221110'
p1299
I1
tp1300
I-10
s(S'0010000010'
p1301
I1
tp1302
I-10
s(S'1011101100'
p1303
I2
tp1304
F94.92326013988506
s(S'0101100000'
p1305
I2
tp1306
F802.055521948893
s(S'1120011110'
p1307
I0
tp1308
I-10
s(S'2222221110'
p1309
I1
tp1310
F2139.9998493786875
s(S'2201100000'
p1311
I2
tp1312
I-10
s(S'2111110110'
p1313
I2
tp1314
F93.5976365748676
s(S'0012222110'
p1315
I2
tp1316
I-10
s(S'0111121110'
p1317
I2
tp1318
I-10
s(S'2220000110'
p1319
I0
tp1320
I-10
s(S'1000002000'
p1321
I1
tp1322
I-10
s(S'1200111110'
p1323
I0
tp1324
F458.4197818766906
s(S'0111000010'
p1325
I1
tp1326
I0
s(S'1122200000'
p1327
I1
tp1328
I-10
s(S'0000010000'
p1329
I0
tp1330
F3274.0138841238063
s(S'1122220000'
p1331
I1
tp1332
F-14.011
s(S'2221000110'
p1333
I0
tp1334
F-10.0
s(S'1000000000'
p1335
I1
tp1336
F-128.14894847700364
s(S'0001111100'
p1337
I2
tp1338
F72.28166069482235
s(S'2221100110'
p1339
I2
tp1340
I-10
s(S'1111100100'
p1341
I2
tp1342
F720.5067351075376
s(S'2210000010'
p1343
I1
tp1344
I-10
s(S'1011111000'
p1345
I1
tp1346
I0
s(S'0111120000'
p1347
I0
tp1348
F7.301213356414762
s(S'2001110110'
p1349
I1
tp1350
F28.772850266183713
s(S'0100111000'
p1351
I1
tp1352
I-10
s(S'1111100110'
p1353
I1
tp1354
F163.398000441218
s(S'0022221110'
p1355
I0
tp1356
F-11.5
s(S'0001001110'
p1357
I0
tp1358
F1204.2111640721555
s(S'2201111000'
p1359
I1
tp1360
I27
s(S'0012000010'
p1361
I0
tp1362
F-8.61876531824608
s(S'1100100010'
p1363
I1
tp1364
I7
s(S'1111012000'
p1365
I1
tp1366
I-10
s(S'2001111100'
p1367
I0
tp1368
F73.52760085400517
s(S'0110000010'
p1369
I1
tp1370
F4318.231297355471
s(S'2201100010'
p1371
I0
tp1372
I-10
s(S'1000220000'
p1373
I2
tp1374
F-5.590000000000001
s(S'2222111000'
p1375
I2
tp1376
I-10
s(S'2220000100'
p1377
I0
tp1378
I-10
s(S'1100200000'
p1379
I2
tp1380
I-10
s(S'2000000010'
p1381
I0
tp1382
I-10
s(S'0002222210'
p1383
I1
tp1384
F777.9632543037433
s(S'1000000100'
p1385
I2
tp1386
F1447.02919247583
s(S'2222222110'
p1387
I1
tp1388
I-10
s(S'0222000000'
p1389
I0
tp1390
I-10
s(S'1121111000'
p1391
I0
tp1392
F16.59682442084075
s(S'1200001110'
p1393
I2
tp1394
F-12.1
s(S'1100000100'
p1395
I1
tp1396
I-10
s(S'1101110010'
p1397
I0
tp1398
I-10
s(S'1122010000'
p1399
I1
tp1400
I-10
s(S'0001220000'
p1401
I2
tp1402
I-10
s(S'1101000110'
p1403
I1
tp1404
F34.602323987127825
s(S'0020001110'
p1405
I2
tp1406
F3241.7920459785414
s(S'1110000110'
p1407
I1
tp1408
F94.60979219717468
s(S'1000000020'
p1409
I2
tp1410
I-10
s(S'0002000110'
p1411
I2
tp1412
F831.3121059126747
s(S'0000100010'
p1413
I1
tp1414
F761.5295341950857
s(S'1002100000'
p1415
I1
tp1416
I-10
s(S'1001111000'
p1417
I1
tp1418
F110.97858060932265
s(S'1102100000'
p1419
I2
tp1420
I-10
s(S'2100000000'
p1421
I1
tp1422
I-10
s(S'1122200000'
p1423
I0
tp1424
I-10
s(S'1000111010'
p1425
I2
tp1426
F276.6357422517948
s(S'0200001110'
p1427
I1
tp1428
F1459.6988507962187
s(S'0111120010'
p1429
I1
tp1430
I0
s(S'1110002000'
p1431
I2
tp1432
I-10
s(S'0122000110'
p1433
I2
tp1434
F1478.1438066738272
s(S'2001111010'
p1435
I1
tp1436
F111.37874594508199
s(S'0100000100'
p1437
I1
tp1438
I-10
s(S'2000000020'
p1439
I2
tp1440
I-10
s(S'2222221000'
p1441
I1
tp1442
F-12.1
s(S'1111000000'
p1443
I1
tp1444
F-104.72071639565574
s(S'0011200000'
p1445
I0
tp1446
F157.0419389300322
s(S'2221000000'
p1447
I0
tp1448
F-12.1
s(S'0111100100'
p1449
I2
tp1450
F-1.796800000000001
s(S'0200000110'
p1451
I0
tp1452
F-13.57030403119114
s(S'0111100010'
p1453
I1
tp1454
F169.8825984764897
s(S'1101000000'
p1455
I0
tp1456
F9002.858458044768
s(S'1001011100'
p1457
I1
tp1458
F100.64757805633877
s(S'1100221000'
p1459
I2
tp1460
I-10
s(S'0022210000'
p1461
I2
tp1462
I-10
s(S'0101000000'
p1463
I0
tp1464
I-10
s(S'1122222210'
p1465
I2
tp1466
I-10
s(S'0110000000'
p1467
I1
tp1468
F0.0
s(S'0011000010'
p1469
I1
tp1470
F-12.1
s(S'0001011010'
p1471
I1
tp1472
F15.49041070233842
s(S'2110111100'
p1473
I0
tp1474
I2
s(S'1122222000'
p1475
I1
tp1476
F-13.57
s(S'1000000010'
p1477
I0
tp1478
F-12.1
s(S'1001101100'
p1479
I0
tp1480
F115.51334096628126
s(S'0022001110'
p1481
I1
tp1482
I-10
s(S'2222110000'
p1483
I2
tp1484
I-10
s(S'0210001110'
p1485
I1
tp1486
F-12.1
s(S'1112222220'
p1487
I1
tp1488
F-12.1
s(S'2000000000'
p1489
I2
tp1490
F-14.03230737987551
s(S'0000122220'
p1491
I0
tp1492
I-10
s(S'1102220000'
p1493
I2
tp1494
F-10.0
s(S'0111010000'
p1495
I2
tp1496
F161.61968439051054
s(S'0000020000'
p1497
I0
tp1498
I-10
s(S'1110011200'
p1499
I0
tp1500
F22.659229424725375
s(S'2222100000'
p1501
I1
tp1502
F-11.469999999999999
s(S'1222211110'
p1503
I1
tp1504
F-19.764774966246996
s(S'0001211110'
p1505
I0
tp1506
I-10
s(S'2210000000'
p1507
I0
tp1508
F7087.615182905691
s(S'0002211110'
p1509
I2
tp1510
I-10
s(S'0211110010'
p1511
I0
tp1512
F58.416556679855724
s(S'0120011110'
p1513
I1
tp1514
I-10
s(S'1001110110'
p1515
I0
tp1516
F148.1205183868309
s(S'0011000010'
p1517
I0
tp1518
F5465.79926925962
s(S'0111112010'
p1519
I0
tp1520
F4.53173949522
s(S'1111111110'
p1521
I2
tp1522
F-7.459636214081256
s(S'1222222000'
p1523
I2
tp1524
I-10
s(S'1111002000'
p1525
I0
tp1526
I-10
s(S'1112200000'
p1527
I2
tp1528
I-10
s(S'1100012000'
p1529
I0
tp1530
I-10
s(S'0010011000'
p1531
I0
tp1532
I2
s(S'0110111110'
p1533
I1
tp1534
F-12.014366313627663
s(S'1110022000'
p1535
I0
tp1536
F-10.0
s(S'0110011000'
p1537
I0
tp1538
F186.3121679544945
s(S'0100011010'
p1539
I1
tp1540
F25.241195893710763
s(S'0101111000'
p1541
I1
tp1542
I-10
s(S'1110112000'
p1543
I1
tp1544
I-10
s(S'0110001100'
p1545
I0
tp1546
F442.4314741386886
s(S'2001110110'
p1547
I2
tp1548
I0
s(S'2222222100'
p1549
I0
tp1550
I-10
s(S'2221101110'
p1551
I1
tp1552
F-12.1
s(S'0022222210'
p1553
I2
tp1554
F-10.189
s(S'2222211110'
p1555
I2
tp1556
F-16.967316999999998
s(S'2200000110'
p1557
I1
tp1558
F-17.52091898824016
s(S'1222100000'
p1559
I0
tp1560
I-10
s(S'1100000020'
p1561
I2
tp1562
F-10.0
s(S'1000011110'
p1563
I2
tp1564
F328.80100387290094
s(S'1110110100'
p1565
I2
tp1566
F48.37711004635312
s(S'1121000000'
p1567
I2
tp1568
I-10
s(S'2110000020'
p1569
I1
tp1570
I-10
s(S'0222000000'
p1571
I1
tp1572
F-12.695419142537903
s(S'1001111110'
p1573
I2
tp1574
F146.8346078180562
s(S'0022221110'
p1575
I1
tp1576
F-10.0
s(S'1101101110'
p1577
I2
tp1578
F44.10436004818822
s(S'1111101000'
p1579
I0
tp1580
F10933.930596946064
s(S'0000110010'
p1581
I2
tp1582
F1621.2918182195315
s(S'2100001110'
p1583
I2
tp1584
F913.1328545664852
s(S'0000001010'
p1585
I2
tp1586
I-10
s(S'1100022000'
p1587
I0
tp1588
I-10
s(S'1100221000'
p1589
I0
tp1590
I-10
s(S'0020000110'
p1591
I1
tp1592
I-10
s(S'1100110000'
p1593
I1
tp1594
F263.0997287113371
s(S'1101000010'
p1595
I1
tp1596
I-10
s(S'0200000000'
p1597
I2
tp1598
F2140.2787445331774
s(S'0000000100'
p1599
I2
tp1600
I-10
s(S'2211111100'
p1601
I0
tp1602
F83.33892935138134
s(S'0011001110'
p1603
I2
tp1604
F1521.5941900740704
s(S'1100000000'
p1605
I2
tp1606
F1919.1543780406325
s(S'0111011100'
p1607
I1
tp1608
F108.88253573717529
s(S'0111112210'
p1609
I1
tp1610
F0.9279136734302662
s(S'0222222220'
p1611
I0
tp1612
F819.1587934200925
s(S'2111111100'
p1613
I2
tp1614
I-10
s(S'0122111110'
p1615
I0
tp1616
I-10
s(S'1001101110'
p1617
I1
tp1618
F4.620655
s(S'1100000010'
p1619
I1
tp1620
F1922.1381210575312
s(S'0000001000'
p1621
I2
tp1622
I-10
s(S'1120111110'
p1623
I2
tp1624
I-10
s(S'0111122110'
p1625
I1
tp1626
F0.3961640092486738
s(S'0000220000'
p1627
I0
tp1628
F-10.0
s(S'1220011110'
p1629
I0
tp1630
I-10
s(S'0111112220'
p1631
I1
tp1632
I0
s(S'1101110010'
p1633
I1
tp1634
F90.86445037460916
s(S'1122222000'
p1635
I2
tp1636
F-14.011
s(S'1222000010'
p1637
I0
tp1638
I-10
s(S'0110000110'
p1639
I0
tp1640
F-14.011
s(S'0000022220'
p1641
I1
tp1642
I-10
s(S'2222221010'
p1643
I0
tp1644
I-10
s(S'1000000200'
p1645
I0
tp1646
I-10
s(S'2111001100'
p1647
I0
tp1648
F63.196641717017506
s(S'0112000110'
p1649
I0
tp1650
F1143.174840299014
s(S'0100011110'
p1651
I2
tp1652
I-10
s(S'1010111110'
p1653
I1
tp1654
F107.12277555788634
s(S'0122222220'
p1655
I2
tp1656
I-10
s(S'2211110110'
p1657
I2
tp1658
F59.20484985915425
s(S'2000000110'
p1659
I1
tp1660
F3114.6825417912332
s(S'0120111110'
p1661
I2
tp1662
I-10
s(S'1100001100'
p1663
I1
tp1664
I-10
s(S'2000111100'
p1665
I2
tp1666
F116.96396546687215
s(S'0000011010'
p1667
I0
tp1668
F144.21142605400308
s(S'1001000000'
p1669
I0
tp1670
I-10
s(S'0011101000'
p1671
I0
tp1672
F76.32829312312136
s(S'1111102000'
p1673
I0
tp1674
I-10
s(S'0222221110'
p1675
I0
tp1676
F9757.69581763322
s(S'0011110100'
p1677
I1
tp1678
F110.20663951523062
s(S'0000100000'
p1679
I2
tp1680
F-13.633666128684528
s(S'0111111200'
p1681
I0
tp1682
I0
s(S'0001111100'
p1683
I1
tp1684
F-0.8016978759315521
s(S'0222222110'
p1685
I2
tp1686
F-12.1
s(S'1111100000'
p1687
I0
tp1688
F-20.307567054622744
s(S'0000111100'
p1689
I0
tp1690
F-1.8773478181833845
s(S'1000020000'
p1691
I0
tp1692
I-10
s(S'0000100100'
p1693
I0
tp1694
F1192.4758047251848
s(S'0021110000'
p1695
I0
tp1696
I-10
s(S'0011100000'
p1697
I2
tp1698
I-10
s(S'2222101110'
p1699
I0
tp1700
I-10
s(S'1000100000'
p1701
I0
tp1702
F-11.725003
s(S'0100000000'
p1703
I1
tp1704
F1620.4875010634632
s(S'0111112200'
p1705
I0
tp1706
F0.46960649579620695
s(S'0002222110'
p1707
I2
tp1708
I-10
s(S'1111011110'
p1709
I2
tp1710
F78.15825104367731
s(S'0111120110'
p1711
I1
tp1712
I0
s(S'0221000010'
p1713
I1
tp1714
I-10
s(S'1111000110'
p1715
I0
tp1716
F125.82544712088485
s(S'2111101110'
p1717
I2
tp1718
F47.479537578732945
s(S'1110200000'
p1719
I0
tp1720
I-10
s(S'1100001110'
p1721
I0
tp1722
I-10
s(S'0010000010'
p1723
I2
tp1724
F813.5821265354942
s(S'2222200000'
p1725
I0
tp1726
F-11.469999999999999
s(S'2221110010'
p1727
I1
tp1728
F45.17204256016338
s(S'1022000000'
p1729
I1
tp1730
I-10
s(S'2221000110'
p1731
I2
tp1732
F-10.0
s(S'0121111100'
p1733
I2
tp1734
I9
s(S'1102220000'
p1735
I1
tp1736
I-10
s(S'2000000010'
p1737
I1
tp1738
F1678.9535352602725
s(S'2111111100'
p1739
I1
tp1740
I-10
s(S'0111110000'
p1741
I1
tp1742
I-10
s(S'0000000010'
p1743
I2
tp1744
F-38.81808572627506
s(S'1101011110'
p1745
I1
tp1746
I-10
s(S'1112100000'
p1747
I0
tp1748
I-10
s(S'1001101000'
p1749
I1
tp1750
F148.13264550047742
s(S'0022221110'
p1751
I2
tp1752
F208.13755002413754
s(S'0111112000'
p1753
I1
tp1754
F3.5
s(S'1010110000'
p1755
I0
tp1756
I-10
s(S'1102221000'
p1757
I1
tp1758
I-10
s(S'1001011110'
p1759
I0
tp1760
F162.46491159575248
s(S'1000220000'
p1761
I0
tp1762
F-10.0
s(S'1200111110'
p1763
I1
tp1764
I-10
s(S'1100200000'
p1765
I0
tp1766
F551.9113799677234
s(S'1011110010'
p1767
I0
tp1768
F35.386306154684256
s(S'2200111110'
p1769
I2
tp1770
I-10
s(S'0011111110'
p1771
I2
tp1772
F-11.653799742719926
s(S'1111011000'
p1773
I0
tp1774
F139.08972740946118
s(S'2100000020'
p1775
I0
tp1776
I-10
s(S'1222222220'
p1777
I1
tp1778
I-10
s(S'1201111110'
p1779
I0
tp1780
F65.59326347526417
s(S'0000100110'
p1781
I1
tp1782
F436.42021946621594
s(S'0222000000'
p1783
I2
tp1784
I-10
s(S'1111101000'
p1785
I1
tp1786
I-10
s(S'1101100110'
p1787
I2
tp1788
F53.741753124468865
s(S'1200001110'
p1789
I0
tp1790
F7045.71690333019
s(S'1111121110'
p1791
I2
tp1792
F0.0
s(S'2000001110'
p1793
I2
tp1794
F-15.697569726276118
s(S'0111011110'
p1795
I0
tp1796
F174.60686052992224
s(S'0100001110'
p1797
I2
tp1798
I-10
s(S'2200111110'
p1799
I0
tp1800
I-10
s(S'0001200000'
p1801
I1
tp1802
F571.4930348688254
s(S'1111000100'
p1803
I1
tp1804
I-10
s(S'1122220000'
p1805
I0
tp1806
F-0.6891991429448554
s(S'0020001110'
p1807
I0
tp1808
I-10
s(S'2200000000'
p1809
I2
tp1810
F-10.61723844
s(S'0101111100'
p1811
I0
tp1812
F269.2024884948806
s(S'0011000110'
p1813
I1
tp1814
F1096.4499810973557
s(S'1100010000'
p1815
I1
tp1816
F1429.8337561586332
s(S'1122100000'
p1817
I0
tp1818
I-10
s(S'1102100000'
p1819
I0
tp1820
I-10
s(S'0200000000'
p1821
I0
tp1822
I-10
s(S'2100111100'
p1823
I2
tp1824
F1.2000000000000002
s(S'1111010010'
p1825
I1
tp1826
F436.5408297638641
s(S'0110000100'
p1827
I1
tp1828
I6
s(S'2111111010'
p1829
I0
tp1830
F81.87414588064716
s(S'0010221110'
p1831
I1
tp1832
I-10
s(S'1000001000'
p1833
I1
tp1834
F1422.9969896838702
s(S'1100220000'
p1835
I0
tp1836
F11.700000000000001
s(S'2001110010'
p1837
I1
tp1838
I27
s(S'2211011110'
p1839
I1
tp1840
I3
s(S'0122000110'
p1841
I0
tp1842
F-12.1
s(S'1110100000'
p1843
I0
tp1844
I-10
s(S'0022200000'
p1845
I2
tp1846
I-10
s(S'1011111100'
p1847
I2
tp1848
F78.0344034705835
s(S'0011111000'
p1849
I0
tp1850
F456.1227624189958
s(S'0001011110'
p1851
I1
tp1852
F226.81702114118727
s(S'2100000010'
p1853
I2
tp1854
I-150
s(S'0022210000'
p1855
I0
tp1856
I-10
s(S'0000101100'
p1857
I0
tp1858
F240.52550567662533
s(S'0010101110'
p1859
I0
tp1860
F184.21469132251852
s(S'0012000000'
p1861
I0
tp1862
I-10
s(S'0001111010'
p1863
I0
tp1864
F87.5079804520164
s(S'1011111010'
p1865
I1
tp1866
F91.06672789188327
s(S'1122010000'
p1867
I2
tp1868
I-10
s(S'0112111110'
p1869
I0
tp1870
I-10
s(S'1100001100'
p1871
I2
tp1872
F159.23341617860748
s(S'1100000100'
p1873
I2
tp1874
I-10
s(S'1001111100'
p1875
I0
tp1876
F213.9290328150443
s(S'1120001110'
p1877
I0
tp1878
I-10
s(S'1010011100'
p1879
I1
tp1880
F68.19097057517513
s(S'2222222210'
p1881
I1
tp1882
I6
s(S'1110101000'
p1883
I2
tp1884
F63.34539776039276
s(S'0110011110'
p1885
I1
tp1886
I-10
s(S'1000011110'
p1887
I0
tp1888
F-20.331702633096718
s(S'0000122110'
p1889
I0
tp1890
I-10
s(S'1211110110'
p1891
I1
tp1892
I8
s(S'1111011200'
p1893
I1
tp1894
F-2.3561103138993356
s(S'0112222220'
p1895
I2
tp1896
I-10
s(S'1110000010'
p1897
I1
tp1898
F-12.1
s(S'0100001000'
p1899
I2
tp1900
F114.85919796185297
s(S'0110100110'
p1901
I0
tp1902
F162.8628951527835
s(S'0000111100'
p1903
I2
tp1904
F11.919262036883623
s(S'0022000010'
p1905
I2
tp1906
F58.71482540070443
s(S'0000020000'
p1907
I2
tp1908
I-10
s(S'1010000000'
p1909
I1
tp1910
F1706.879685189561
s(S'2201111100'
p1911
I0
tp1912
I-10
s(S'1211110010'
p1913
I1
tp1914
F53.09599111017252
s(S'2221111000'
p1915
I0
tp1916
F-2.949470420494994
s(S'0200000010'
p1917
I0
tp1918
I-10
s(S'1122100000'
p1919
I2
tp1920
I-10
s(S'2111111110'
p1921
I0
tp1922
F51.08834442866703
s(S'1220001110'
p1923
I2
tp1924
F-12.1
s(S'2211000110'
p1925
I2
tp1926
I-10
s(S'1100001110'
p1927
I2
tp1928
F437.4698358105868
s(S'2222110000'
p1929
I1
tp1930
I-10
s(S'0011000010'
p1931
I2
tp1932
I-10
s(S'0120001110'
p1933
I0
tp1934
F-7.098884563724723
s(S'2221000000'
p1935
I1
tp1936
F-12.942309999999999
s(S'1111111110'
p1937
I0
tp1938
F752.3644778649857
s(S'0002222220'
p1939
I2
tp1940
F5965.494814717325
s(S'0100100000'
p1941
I1
tp1942
F68.42665543217531
s(S'1111002000'
p1943
I2
tp1944
F316.54135677613715
s(S'1110112000'
p1945
I0
tp1946
I-10
s(S'2222222000'
p1947
I2
tp1948
I65
s(S'0221000000'
p1949
I1
tp1950
I-10
s(S'1100012000'
p1951
I2
tp1952
I-10
s(S'2221111110'
p1953
I2
tp1954
F-14.011
s(S'1110022000'
p1955
I2
tp1956
I-10
s(S'0001021110'
p1957
I0
tp1958
I-10
s(S'0000120000'
p1959
I0
tp1960
F2621.69157529755
s(S'1222222110'
p1961
I2
tp1962
I26105
s(S'0001111110'
p1963
I0
tp1964
F-14.357036219975182
s(S'1010000010'
p1965
I1
tp1966
I-10
s(S'2221100000'
p1967
I1
tp1968
F-10.0
s(S'0220001110'
p1969
I0
tp1970
I-10
s(S'1222221000'
p1971
I2
tp1972
I18660
s(S'2100000110'
p1973
I1
tp1974
F2680.3636212161027
s(S'0100101100'
p1975
I1
tp1976
I9
s(S'0001000110'
p1977
I1
tp1978
F220.2619669860519
s(S'0000000000'
p1979
I1
tp1980
F-144.45196186846383
s(S'1100002000'
p1981
I1
tp1982
I-10
s(S'1100000100'
p1983
I0
tp1984
F445.8799670831078
s(S'0100000110'
p1985
I2
tp1986
I-10
s(S'0220000010'
p1987
I2
tp1988
F1078.4726027240627
s(S'1100000020'
p1989
I0
tp1990
I-10
s(S'0001101100'
p1991
I1
tp1992
I-10
s(S'0011111100'
p1993
I1
tp1994
F-0.20000000000000018
s(S'2221110000'
p1995
I0
tp1996
I-10
s(S'2211100000'
p1997
I2
tp1998
I-10
s(S'1100000000'
p1999
I0
tp2000
F-132.685337868197
s(S'1110000000'
p2001
I0
tp2002
F1964.389646440615
s(S'0000110000'
p2003
I2
tp2004
F1994.7554984684193
s(S'1221111100'
p2005
I2
tp2006
F8.7
s(S'0021000110'
p2007
I0
tp2008
I-10
s(S'0101111110'
p2009
I1
tp2010
F100.23538648497365
s(S'0011100010'
p2011
I0
tp2012
F102.89809259852692
s(S'0000111000'
p2013
I0
tp2014
F313.5408169883828
s(S'0001011000'
p2015
I0
tp2016
F54.804242933061815
s(S'2221001110'
p2017
I0
tp2018
F-12.1
s(S'1111000020'
p2019
I1
tp2020
I-10
s(S'1100022000'
p2021
I2
tp2022
I-10
s(S'0001010000'
p2023
I1
tp2024
I9
s(S'1111022000'
p2025
I0
tp2026
I-10
s(S'0002000000'
p2027
I1
tp2028
I-10
s(S'2222200000'
p2029
I2
tp2030
F-10.0
s(S'2000001010'
p2031
I1
tp2032
I-10
s(S'0221100000'
p2033
I0
tp2034
I-10
s(S'1101011100'
p2035
I1
tp2036
F59.77182548139681
s(S'0011001110'
p2037
I0
tp2038
I-10
s(S'2222220000'
p2039
I2
tp2040
I-10
s(S'2111111100'
p2041
I0
tp2042
F15050.325523619065
s(S'0010111110'
p2043
I1
tp2044
F195.4724268810126
s(S'0000222220'
p2045
I1
tp2046
F-14.011
s(S'0120000110'
p2047
I2
tp2048
F-14.011
s(S'1102000000'
p2049
I1
tp2050
I-10
s(S'0111122000'
p2051
I0
tp2052
F0.0
s(S'1011110110'
p2053
I0
tp2054
F94.13595411824424
s(S'1000111100'
p2055
I2
tp2056
F154.73049177847193
s(S'0000001000'
p2057
I0
tp2058
F790.9635011563587
s(S'0002111100'
p2059
I0
tp2060
I6
s(S'0111100100'
p2061
I0
tp2062
I-10
s(S'1222000000'
p2063
I2
tp2064
F-59.47
s(S'0200011110'
p2065
I0
tp2066
F-12.1
s(S'0000010100'
p2067
I0
tp2068
F866.1201367434155
s(S'2210000010'
p2069
I2
tp2070
I-10
s(S'1102200000'
p2071
I1
tp2072
F9788.344673077569
s(S'1122222000'
p2073
I0
tp2074
F-15.575030899360781
s(S'0110100100'
p2075
I1
tp2076
I6
s(S'0101110110'
p2077
I0
tp2078
F99.12920578304735
s(S'0000000200'
p2079
I1
tp2080
F1809.948310850561
s(S'1011111100'
p2081
I0
tp2082
I-10
s(S'1000000200'
p2083
I2
tp2084
I-10
s(S'0100111000'
p2085
I2
tp2086
F112.74997094523049
s(S'0111011200'
p2087
I1
tp2088
F11.850000000000001
s(S'0000222220'
p2089
I0
tp2090
F-15.102737101
s(S'1002000000'
p2091
I0
tp2092
F-10.0
s(S'0122222220'
p2093
I0
tp2094
I-10
s(S'1111010100'
p2095
I2
tp2096
F85.40309146130097
s(S'0120111110'
p2097
I0
tp2098
F11.05525567855496
s(S'0010110010'
p2099
I0
tp2100
F302.54515632594746
s(S'0002200000'
p2101
I1
tp2102
F-13.57
s(S'2211000000'
p2103
I0
tp2104
I-10
s(S'0021000010'
p2105
I0
tp2106
I-10
s(S'1111111100'
p2107
I1
tp2108
I-10
s(S'1001000000'
p2109
I2
tp2110
I-10
s(S'1111111010'
p2111
I2
tp2112
F74.2450096113549
s(S'0100011110'
p2113
I1
tp2114
F465.48797275479876
s(S'0000100000'
p2115
I0
tp2116
F-10.303172041354895
s(S'0001220000'
p2117
I1
tp2118
I-10
s(S'0100100100'
p2119
I2
tp2120
I9
s(S'2222222110'
p2121
I2
tp2122
I-10
s(S'1111101110'
p2123
I1
tp2124
F67.6631050087803
s(S'1110000020'
p2125
I2
tp2126
I-10
s(S'2101111000'
p2127
I0
tp2128
I15
s(S'0002100000'
p2129
I1
tp2130
F1330.5529363018288
s(S'1011110000'
p2131
I2
tp2132
I-10
s(S'0000100100'
p2133
I2
tp2134
I-10
s(S'1100110100'
p2135
I2
tp2136
F93.94615987741211
s(S'1000001110'
p2137
I0
tp2138
F-17.913778389271048
s(S'2222101110'
p2139
I2
tp2140
I-10
s(S'1011100010'
p2141
I2
tp2142
F59.719508761574176
s(S'0000220000'
p2143
I2
tp2144
F55.3428503505625
s(S'0101101110'
p2145
I1
tp2146
F81.74053423178778
s(S'2222222220'
p2147
I2
tp2148
F426.84587486852314
s(S'1011011110'
p2149
I1
tp2150
F21.23535752011128
s(S'0001100100'
p2151
I2
tp2152
F33.045338689994765
s(S'0222000010'
p2153
I1
tp2154
I-10
s(S'0022000010'
p2155
I1
tp2156
I-10
s(S'0110101100'
p2157
I0
tp2158
I43
s(S'0111111100'
p2159
I2
tp2160
I-10
s(S'2001111000'
p2161
I1
tp2162
F48.973158278726714
s(S'0010110110'
p2163
I0
tp2164
F374.9894274988923
s(S'0002011110'
p2165
I1
tp2166
I-10
s(S'1222000000'
p2167
I0
tp2168
F-20.92955360678257
s(S'1222221110'
p2169
I1
tp2170
I-10
s(S'1100100000'
p2171
I1
tp2172
I-10
s(S'1010111110'
p2173
I2
tp2174
I-10
s(S'2110000000'
p2175
I0
tp2176
I-10
s(S'0011011110'
p2177
I0
tp2178
F-12.1
s(S'0000000010'
p2179
I0
tp2180
F-19.808899604159816
s(S'0101111000'
p2181
I2
tp2182
F81.48945125071263
s(S'0122221110'
p2183
I1
tp2184
I-10
s(S'2222111110'
p2185
I0
tp2186
F-13.839009999999998
s(S'0022222210'
p2187
I0
tp2188
F-12.1
s(S'0010110000'
p2189
I1
tp2190
F160.5388683442242
s(S'0102221110'
p2191
I2
tp2192
I-10
s(S'2221100000'
p2193
I0
tp2194
I-10
s(S'1001010000'
p2195
I1
tp2196
F90.11493442687586
s(S'1102221000'
p2197
I0
tp2198
I-10
s(S'2222222210'
p2199
I2
tp2200
I-10
s(S'2201000010'
p2201
I0
tp2202
I-10
s(S'2222000000'
p2203
I1
tp2204
F1625.9375330767987
s(S'0012000110'
p2205
I2
tp2206
F-8.98009357550752
s(S'0111111000'
p2207
I0
tp2208
F-9.454
s(S'1122222210'
p2209
I1
tp2210
I-10
s(S'1220001110'
p2211
I0
tp2212
F-13.171818958507291
s(S'0110111110'
p2213
I2
tp2214
F-6.994152253215337
s(S'2111000000'
p2215
I1
tp2216
I-10
s(S'0111122010'
p2217
I2
tp2218
F0.057531776720745234
s(S'0000101000'
p2219
I0
tp2220
F1480.8424765391105
s(S'2211100110'
p2221
I0
tp2222
F75.45822396976223
s(S'0110011110'
p2223
I0
tp2224
F985.7661939242599
s(S'0210001110'
p2225
I2
tp2226
F-12.380476
s(S'0100000010'
p2227
I0
tp2228
I-10
s(S'2000001110'
p2229
I0
tp2230
F-17.34325396897933
s(S'0122222210'
p2231
I0
tp2232
F-10.0
s(S'1000011100'
p2233
I1
tp2234
F172.94514954065184
s(S'0200000110'
p2235
I1
tp2236
F7479.723243302533
s(S'0000011110'
p2237
I0
tp2238
F-23.554869705228164
s(S'1201100000'
p2239
I2
tp2240
I-10
s(S'0012111110'
p2241
I1
tp2242
I-10
s(S'0000000220'
p2243
I2
tp2244
I-10
s(S'0020000000'
p2245
I1
tp2246
F1669.73675034648
s(S'0100221110'
p2247
I0
tp2248
I-10
s(S'0021111010'
p2249
I2
tp2250
I0
s(S'0000001100'
p2251
I1
tp2252
F-1.915
s(S'0011000000'
p2253
I0
tp2254
F724.1877166920486
s(S'0000111110'
p2255
I2
tp2256
F403.3967077565848
s(S'1011001110'
p2257
I2
tp2258
F125.43411862398405
s(S'1220000000'
p2259
I2
tp2260
I-10
s(S'1011000110'
p2261
I2
tp2262
F45.88304053290444
s(S'2211101110'
p2263
I1
tp2264
F39.64111743300588
s(S'0011011100'
p2265
I1
tp2266
F206.20356334951111
s(S'1222200000'
p2267
I1
tp2268
F264.1238112895509
s(S'0111112220'
p2269
I0
tp2270
I0
s(S'0000000110'
p2271
I0
tp2272
F-15.109926743837724
s(S'2000001010'
p2273
I0
tp2274
I-10
s(S'1101110100'
p2275
I0
tp2276
F32.243648802339145
s(S'1100020000'
p2277
I0
tp2278
I-10
s(S'1110100000'
p2279
I2
tp2280
F448.2033134486031
s(S'2101111010'
p2281
I1
tp2282
I19
s(S'1111011010'
p2283
I0
tp2284
F70.48262148048944
s(S'1000020000'
p2285
I1
tp2286
I-10
s(S'2011111010'
p2287
I1
tp2288
F108.8817099835059
s(S'1011010000'
p2289
I0
tp2290
F112.53591863487026
s(S'2210001110'
p2291
I0
tp2292
F57.526106023108674
s(S'2000111110'
p2293
I0
tp2294
F148.65511843481067
s(S'0110111120'
p2295
I0
tp2296
I34
s(S'1111100010'
p2297
I0
tp2298
F111.31783749289212
s(S'2201000000'
p2299
I1
tp2300
F25.834706545263053
s(S'2221111010'
p2301
I0
tp2302
F35.47265542755177
s(S'1110020000'
p2303
I2
tp2304
I-10
s(S'0010000000'
p2305
I1
tp2306
I-10
s(S'0000120010'
p2307
I0
tp2308
F-12.1
s(S'1111001100'
p2309
I2
tp2310
F125.40590639132022
s(S'0011101120'
p2311
I2
tp2312
F20.867581200322412
s(S'1100001100'
p2313
I0
tp2314
I-10
s(S'0000200000'
p2315
I0
tp2316
I-10
s(S'0111101120'
p2317
I1
tp2318
F27.247933039932533
s(S'0221111110'
p2319
I1
tp2320
F-13.6
s(S'1120001110'
p2321
I2
tp2322
F1513.7186452779974
s(S'0001100010'
p2323
I1
tp2324
F218.30954950318124
s(S'0012000110'
p2325
I0
tp2326
F-12.1
s(S'1121000000'
p2327
I1
tp2328
I-10
s(S'1002210000'
p2329
I1
tp2330
I-10
s(S'0011110010'
p2331
I1
tp2332
F105.92642499736273
s(S'0100110110'
p2333
I2
tp2334
F31.340213796823246
s(S'1001111110'
p2335
I1
tp2336
I-10
s(S'0111101000'
p2337
I2
tp2338
F18.111024958696646
s(S'1111011100'
p2339
I1
tp2340
F70.98241092126067
s(S'2222210000'
p2341
I1
tp2342
F-12.1
s(S'0000120110'
p2343
I1
tp2344
I-10
s(S'0022222220'
p2345
I0
tp2346
F-14.38657177
s(S'0111000000'
p2347
I2
tp2348
F-5.1
s(S'1010001110'
p2349
I2
tp2350
F68.65050523820673
s(S'2201111100'
p2351
I2
tp2352
I-10
s(S'2201111100'
p2353
I1
tp2354
F66.21248263235253
s(S'0200000010'
p2355
I2
tp2356
I-10
s(S'0000000020'
p2357
I0
tp2358
I-10
s(S'0001101010'
p2359
I2
tp2360
F402.46749262491835
s(S'1000110000'
p2361
I2
tp2362
F249.2379285856265
s(S'0000000100'
p2363
I1
tp2364
F1799.5243948537652
s(S'0010000110'
p2365
I0
tp2366
F1832.3761049383738
s(S'0220000000'
p2367
I0
tp2368
I-105
s(S'1110110010'
p2369
I2
tp2370
I10
s(S'2222111000'
p2371
I1
tp2372
I-10
s(S'2220000000'
p2373
I1
tp2374
F540.9251437667176
s(S'0120001110'
p2375
I2
tp2376
F671.6195167174224
s(S'2211111000'
p2377
I0
tp2378
I-10
s(S'1001100000'
p2379
I2
tp2380
F266.71692839258196
s(S'0200001110'
p2381
I2
tp2382
F-19.312413417160222
s(S'0002222220'
p2383
I0
tp2384
F-16.8848179
s(S'1010111110'
p2385
I0
tp2386
I-10
s(S'0000010010'
p2387
I2
tp2388
F380.1564795402087
s(S'2221000000'
p2389
I2
tp2390
F307.34979855317977
s(S'0000110100'
p2391
I0
tp2392
I-10
s(S'0122111100'
p2393
I1
tp2394
I4
s(S'0002210000'
p2395
I1
tp2396
I-10
s(S'2221111110'
p2397
I0
tp2398
F-12.1
s(S'0111111110'
p2399
I1
tp2400
F-13.195151866918552
s(S'0111010100'
p2401
I2
tp2402
F56.97153506747256
s(S'0000001100'
p2403
I0
tp2404
F8957.61126983449
s(S'0001111110'
p2405
I2
tp2406
F-13.27611743338734
s(S'0000022220'
p2407
I2
tp2408
F-12.1
s(S'2210000110'
p2409
I0
tp2410
I-10
s(S'1110002100'
p2411
I1
tp2412
I5
s(S'1100100100'
p2413
I1
tp2414
F7.85682
s(S'0012111110'
p2415
I0
tp2416
F-11.5
s(S'0100010000'
p2417
I2
tp2418
I-10
s(S'0100011000'
p2419
I1
tp2420
F72.44500477717341
s(S'2000000110'
p2421
I2
tp2422
I-10
s(S'2200000010'
p2423
I0
tp2424
I-10
s(S'0220000010'
p2425
I0
tp2426
I-10
s(S'1222220000'
p2427
I0
tp2428
I-10
s(S'1000010000'
p2429
I1
tp2430
F295.7198682055107
s(S'1100001000'
p2431
I0
tp2432
F5970.322676754144
s(S'2221110000'
p2433
I2
tp2434
I-10
s(S'0202111100'
p2435
I2
tp2436
I-10
s(S'2010011110'
p2437
I0
tp2438
I7
s(S'1112111100'
p2439
I1
tp2440
I-10
s(S'1110001110'
p2441
I1
tp2442
F133.52320603107765
s(S'0111120110'
p2443
I0
tp2444
F0.029774756354863225
s(S'2100000020'
p2445
I2
tp2446
F342.268225649109
s(S'2200000010'
p2447
I1
tp2448
I-10
s(S'0001222220'
p2449
I0
tp2450
F-10.0
s(S'0022000110'
p2451
I0
tp2452
I-10
s(S'2000011110'
p2453
I2
tp2454
F-15.407573335258006
s(S'0102221110'
p2455
I0
tp2456
I-10
s(S'2221100010'
p2457
I2
tp2458
I-10
s(S'2221001110'
p2459
I2
tp2460
I-10
s(S'1000020000'
p2461
I2
tp2462
I-10
s(S'2222221100'
p2463
I1
tp2464
I-10
s(S'0022111110'
p2465
I1
tp2466
F-10.0
s(S'1110111110'
p2467
I1
tp2468
F74.32549499027643
s(S'2000011100'
p2469
I1
tp2470
F52.28834294510732
s(S'0010000010'
p2471
I0
tp2472
I-10
s(S'0022222110'
p2473
I1
tp2474
F-13.6
s(S'0000011110'
p2475
I2
tp2476
F609.8648187572618
s(S'0011111110'
p2477
I0
tp2478
F94.2590074956991
s(S'1111100000'
p2479
I2
tp2480
F-20.68061119017929
s(S'2200001110'
p2481
I1
tp2482
F-20.92733569291631
s(S'2222210000'
p2483
I0
tp2484
F-11.469999999999999
s(S'0000120000'
p2485
I1
tp2486
I-10
s(S'0001010010'
p2487
I1
tp2488
F360.3697940462713
s(S'0000101010'
p2489
I2
tp2490
F121.33316036256228
s(S'1120111110'
p2491
I0
tp2492
F477.2968240235484
s(S'1011000000'
p2493
I1
tp2494
F446.94410091774034
s(S'2220100000'
p2495
I0
tp2496
I-10
s(S'0011110000'
p2497
I0
tp2498
F1346.6334775649457
s(S'1011000000'
p2499
I0
tp2500
I0
s(S'2221000110'
p2501
I1
tp2502
I-10
s(S'1000000000'
p2503
I2
tp2504
F59.32056972837774
s(S'0200011110'
p2505
I2
tp2506
I-10
s(S'1002220000'
p2507
I1
tp2508
F19048.11992
s(S'2210000010'
p2509
I0
tp2510
F39.60877667537099
s(S'0020000110'
p2511
I2
tp2512
F371.0495529930589
s(S'1111111110'
p2513
I1
tp2514
F-15.01137034094155
s(S'1100002000'
p2515
I2
tp2516
I-10
s(S'0022000000'
p2517
I1
tp2518
F626.688796734002
s(S'0010001000'
p2519
I2
tp2520
I5
s(S'0100111000'
p2521
I0
tp2522
I-10
s(S'1122200000'
p2523
I2
tp2524
F247.8685985305993
s(S'0111101120'
p2525
I2
tp2526
I0
s(S'0000222220'
p2527
I2
tp2528
F11161.8311921
s(S'1002000000'
p2529
I2
tp2530
I-10
s(S'1111102200'
p2531
I2
tp2532
I-10
s(S'0100000110'
p2533
I0
tp2534
I-10
s(S'0111111000'
p2535
I2
tp2536
I-10
s(S'0100001110'
p2537
I0
tp2538
F4257.340872859273
s(S'2222111100'
p2539
I1
tp2540
F139.39621057073333
s(S'0221111010'
p2541
I2
tp2542
I10
s(S'2220000100'
p2543
I1
tp2544
I-10
s(S'1001000010'
p2545
I1
tp2546
I-10
s(S'0100011100'
p2547
I1
tp2548
F111.71732458271192
s(S'0011200000'
p2549
I1
tp2550
I-10
s(S'0011111110'
p2551
I1
tp2552
F-12.1
s(S'1200011110'
p2553
I0
tp2554
F218.96073963929157
s(S'1100021000'
p2555
I2
tp2556
I-10
s(S'1122222200'
p2557
I2
tp2558
I-10
s(S'1111101000'
p2559
I2
tp2560
I-10
s(S'1222222100'
p2561
I2
tp2562
I-10
s(S'1011110000'
p2563
I0
tp2564
F0.9308173844109209
s(S'0002220000'
p2565
I2
tp2566
I-10
s(S'1000001110'
p2567
I2
tp2568
F-115.213518308414
s(S'1000100000'
p2569
I2
tp2570
F1593.544620047789
s(S'2222100110'
p2571
I0
tp2572
I-10
s(S'0000120110'
p2573
I0
tp2574
I-10
s(S'1110000020'
p2575
I0
tp2576
I-10
s(S'1010111000'
p2577
I1
tp2578
F89.69822302212648
s(S'1011100110'
p2579
I2
tp2580
F87.12157332143443
s(S'1110000110'
p2581
I2
tp2582
I-10
s(S'1110011010'
p2583
I0
tp2584
F102.19549408472388
s(S'0011001000'
p2585
I1
tp2586
F115.12094932971824
s(S'0111111100'
p2587
I0
tp2588
I-10
s(S'1100111110'
p2589
I0
tp2590
F157.73884643865256
s(S'1110010110'
p2591
I2
tp2592
F88.31865752266096
s(S'0021011110'
p2593
I0
tp2594
I-10
s(S'0002210000'
p2595
I0
tp2596
I-10
s(S'2022211110'
p2597
I1
tp2598
I-10
s(S'0111120000'
p2599
I2
tp2600
I0
s(S'0001000000'
p2601
I0
tp2602
I-10
s(S'2021111010'
p2603
I1
tp2604
I11
s(S'0000010010'
p2605
I0
tp2606
I-10
s(S'2222211110'
p2607
I0
tp2608
F-18.184624
s(S'1110101110'
p2609
I0
tp2610
F101.26604805513534
s(S'1111101010'
p2611
I0
tp2612
F92.60741456416974
s(S'0011000000'
p2613
I2
tp2614
I-10
s(S'1000001100'
p2615
I0
tp2616
F192.9253340204807
s(S'0100000100'
p2617
I0
tp2618
I-10
s(S'1011100010'
p2619
I0
tp2620
I-10
s(S'0022211110'
p2621
I1
tp2622
F-10.0
s(S'2222221000'
p2623
I2
tp2624
F-10.0
s(S'1111000000'
p2625
I0
tp2626
F975.5680918560121
s(S'2222211010'
p2627
I1
tp2628
I-10
s(S'2222111110'
p2629
I2
tp2630
F332.8193341333702
s(S'1110001100'
p2631
I0
tp2632
F1843.577388669276
s(S'0221000000'
p2633
I0
tp2634
F-12.1
s(S'1101000000'
p2635
I1
tp2636
I-10
s(S'1102111100'
p2637
I1
tp2638
I-10
s(S'2111100110'
p2639
I1
tp2640
F84.08633481217998
s(S'0211110110'
p2641
I0
tp2642
F26.932612909473594
s(S'0110000000'
p2643
I0
tp2644
F1017.3565627856442
s(S'0012222110'
p2645
I1
tp2646
I-15
s(S'2200000010'
p2647
I2
tp2648
F2105.9503124270313
s(S'0111122010'
p2649
I0
tp2650
F0.0
s(S'1011011100'
p2651
I0
tp2652
F59.377192501604306
s(S'0001010110'
p2653
I1
tp2654
F203.05744309085347
s(S'1002100000'
p2655
I2
tp2656
I-10
s(S'1110100110'
p2657
I2
tp2658
F99.82884817519182
s(S'1000012000'
p2659
I1
tp2660
F15467.975868241407
s(S'0110010000'
p2661
I1
tp2662
I7
s(S'0101101100'
p2663
I2
tp2664
I10
s(S'0111120110'
p2665
I2
tp2666
F0.0
s(S'2000000000'
p2667
I1
tp2668
F3543.164211647522
s(S'0000122220'
p2669
I1
tp2670
I-10
s(S'0012000010'
p2671
I2
tp2672
I-10
s(S'0010100110'
p2673
I2
tp2674
F125.70009227104929
s(S'1201100000'
p2675
I0
tp2676
I-10
s(S'0001100000'
p2677
I0
tp2678
F1184.956163159108
s(S'0001100000'
p2679
I2
tp2680
F-10.0
s(S'1122000000'
p2681
I0
tp2682
I-10
s(S'0011011110'
p2683
I2
tp2684
F-12.480087550534652
s(S'0000111010'
p2685
I0
tp2686
F198.50765502141425
s(S'1222211110'
p2687
I2
tp2688
F-17.95467337
s(S'2211111110'
p2689
I2
tp2690
F8.289307463511634
s(S'2221101110'
p2691
I2
tp2692
F-13.57
s(S'1111121110'
p2693
I0
tp2694
I0
s(S'0020000010'
p2695
I0
tp2696
I-10
s(S'2210000000'
p2697
I1
tp2698
I-10
s(S'2200000000'
p2699
I0
tp2700
I-50
s(S'0120011110'
p2701
I2
tp2702
I-10
s(S'1110010000'
p2703
I0
tp2704
F97.72996741060689
s(S'0000012000'
p2705
I1
tp2706
I-10
s(S'1010011000'
p2707
I0
tp2708
F60.06279621694753
s.