(dp0
(S'0222211110'
p1
I1
tp2
F117.68202290729039
s(S'1201111100'
p3
I2
tp4
F68.93773164922018
s(S'0001001100'
p5
I2
tp6
F679.7262827315018
s(S'0111111220'
p7
I2
tp8
F107.13251533231615
s(S'0020202110'
p9
I0
tp10
F12.008823653389939
s(S'2000212110'
p11
I2
tp12
F9.517733271209854
s(S'0000120010'
p13
I2
tp14
F8971.248225805542
s(S'0000000000'
p15
I2
tp16
F106.68584406735414
s(S'0000200000'
p17
I2
tp18
F23.375892023749202
s(S'0002111110'
p19
I2
tp20
F-11.32852678222376
s(S'0000220210'
p21
I1
tp22
I-10
s(S'0000022210'
p23
I2
tp24
F222.1935186045717
s(S'1122210000'
p25
I1
tp26
I-10
s(S'1200000000'
p27
I1
tp28
I-10
s(S'2211011110'
p29
I2
tp30
I-10
s(S'1122111110'
p31
I2
tp32
I-10
s(S'0122212110'
p33
I0
tp34
I-10
s(S'0020000110'
p35
I0
tp36
I-10
s(S'0222200000'
p37
I1
tp38
F-16.28509
s(S'0112211110'
p39
I2
tp40
F-12.1
s(S'2022222220'
p41
I2
tp42
F-3.0
s(S'1111112020'
p43
I0
tp44
I0
s(S'1112211110'
p45
I0
tp46
F-13.57
s(S'1011222220'
p47
I0
tp48
I0
s(S'2222222110'
p49
I1
tp50
I-10
s(S'1111211110'
p51
I1
tp52
I-10
s(S'1111110010'
p53
I0
tp54
F120.2686997629783
s(S'1220011110'
p55
I1
tp56
I-10
s(S'0020011110'
p57
I0
tp58
F84.13304203219933
s(S'1000000200'
p59
I1
tp60
I-10
s(S'0100010000'
p61
I0
tp62
I-10
s(S'0000112210'
p63
I2
tp64
I-10
s(S'0222202110'
p65
I2
tp66
I-115
s(S'1111220020'
p67
I1
tp68
F111.02185825067136
s(S'1001111010'
p69
I1
tp70
F160.5328462177859
s(S'1222222110'
p71
I2
tp72
F506.73497985199253
s(S'1111111100'
p73
I2
tp74
I-10
s(S'0022200000'
p75
I1
tp76
F-12.1
s(S'1100011000'
p77
I0
tp78
F333.1330859929861
s(S'2221100010'
p79
I0
tp80
I-10
s(S'1000021000'
p81
I0
tp82
I-10
s(S'2222210000'
p83
I2
tp84
F-12.1
s(S'0101100000'
p85
I1
tp86
F-0.5208412781883851
s(S'2222221110'
p87
I0
tp88
I-10
s(S'2220000110'
p89
I1
tp90
F-9.115617489426757
s(S'1111110110'
p91
I0
tp92
F115.55700766748976
s(S'1111221100'
p93
I0
tp94
I0
s(S'1000022110'
p95
I2
tp96
F-13.57
s(S'1122022210'
p97
I2
tp98
I-10
s(S'0002202110'
p99
I1
tp100
F62.214939353427454
s(S'1000200000'
p101
I0
tp102
I-10
s(S'0012000010'
p103
I1
tp104
F263.83266079512924
s(S'0012212110'
p105
I2
tp106
I-10
s(S'1111012000'
p107
I0
tp108
I-10
s(S'0202211110'
p109
I1
tp110
I-10
s(S'1111222110'
p111
I1
tp112
I-10
s(S'2002222200'
p113
I2
tp114
I0
s(S'2022211110'
p115
I2
tp116
F-12.1
s(S'2200111110'
p117
I0
tp118
I-10
s(S'1111101000'
p119
I0
tp120
F260.0872837535369
s(S'1112222110'
p121
I1
tp122
I-10
s(S'1100111100'
p123
I1
tp124
F307.509369182427
s(S'1221111000'
p125
I2
tp126
I22
s(S'1120021210'
p127
I0
tp128
F-10.0
s(S'0000011120'
p129
I2
tp130
I0
s(S'1122211110'
p131
I2
tp132
F-12.1
s(S'0000100010'
p133
I2
tp134
I-10
s(S'0000101100'
p135
I0
tp136
F867.6317910787677
s(S'1000001000'
p137
I0
tp138
I-10
s(S'0011000110'
p139
I1
tp140
F1096.4499810973557
s(S'1111122000'
p141
I0
tp142
F-11.858920851930119
s(S'0120021210'
p143
I1
tp144
I-10
s(S'2222221000'
p145
I0
tp146
F-12.1
s(S'0000000200'
p147
I2
tp148
I-10
s(S'0122222210'
p149
I2
tp150
F-10.0
s(S'1010010000'
p151
I2
tp152
F654.0418811051836
s(S'0120000110'
p153
I2
tp154
F-14.011
s(S'0002111100'
p155
I0
tp156
I6
s(S'2011111100'
p157
I1
tp158
F92.50586411850377
s(S'0112002020'
p159
I2
tp160
I-10
s(S'0112111110'
p161
I1
tp162
F1.0525956248840567
s(S'0001200210'
p163
I0
tp164
I-10
s(S'0122200000'
p165
I0
tp166
I-10
s(S'1120001110'
p167
I1
tp168
I-10
s(S'0012002210'
p169
I1
tp170
I0
s(S'2100011110'
p171
I1
tp172
F906.0676448388317
s(S'0110111100'
p173
I1
tp174
F493.3285605892066
s(S'1111011200'
p175
I0
tp176
I-5
s(S'1110000010'
p177
I0
tp178
F7043.762663316698
s(S'1101111100'
p179
I2
tp180
F178.8150884023745
s(S'1002100000'
p181
I2
tp182
I-10
s(S'1222211110'
p183
I0
tp184
F32.38175289481613
s(S'0200000010'
p185
I1
tp186
F1038.7333812399525
s(S'2000020200'
p187
I2
tp188
I0
s(S'1220001110'
p189
I1
tp190
F3529.614501259384
s(S'1121111110'
p191
I1
tp192
F-10.618516644743199
s(S'2000000200'
p193
I1
tp194
I-10
s(S'0111000000'
p195
I0
tp196
F521.3707039121734
s(S'0010221110'
p197
I1
tp198
I-10
s(S'0111100110'
p199
I0
tp200
F79.77947347885846
s(S'1000001000'
p201
I1
tp202
F993.0978927787091
s(S'2222222020'
p203
I1
tp204
F-3.0
s(S'0010001100'
p205
I1
tp206
F260.1472501554946
s(S'0222220220'
p207
I1
tp208
F-0.24227260183130123
s(S'0002222200'
p209
I1
tp210
I-10
s(S'0000222200'
p211
I0
tp212
I-10
s(S'0000110010'
p213
I2
tp214
F497.9726970358156
s(S'2200022000'
p215
I1
tp216
I-10
s(S'2022000200'
p217
I0
tp218
I-10
s(S'0000222000'
p219
I1
tp220
F168.55387123690667
s(S'1000020000'
p221
I1
tp222
I-10
s(S'0111112210'
p223
I2
tp224
I0
s(S'0002001110'
p225
I1
tp226
I-10
s(S'1110000200'
p227
I1
tp228
F17.81962179256698
s(S'1000022110'
p229
I0
tp230
F-69.1
s(S'1011011000'
p231
I1
tp232
I16
s(S'1200010000'
p233
I2
tp234
I-10
s(S'0221102200'
p235
I0
tp236
I-10
s(S'0000202220'
p237
I0
tp238
I0
s(S'0111110010'
p239
I1
tp240
F242.84627694927656
s(S'0002200000'
p241
I0
tp242
F26.086425038114808
s(S'2200221110'
p243
I2
tp244
I-10
s(S'0012222220'
p245
I2
tp246
I0
s(S'0011200000'
p247
I2
tp248
I-10
s(S'2020002020'
p249
I0
tp250
F38.013881394342526
s(S'0000011110'
p251
I1
tp252
F-23.915115186669375
s(S'0000211000'
p253
I0
tp254
I-10
s(S'2202111110'
p255
I2
tp256
I-10
s(S'0021111110'
p257
I0
tp258
I-10
s(S'0100111100'
p259
I0
tp260
F338.62597259257984
s(S'2222220000'
p261
I1
tp262
I-10
s(S'0000202000'
p263
I2
tp264
F36.90114770499547
s(S'2222000000'
p265
I0
tp266
F-15.750009999999998
s(S'1000002000'
p267
I2
tp268
I-10
s(S'1110100000'
p269
I0
tp270
I-10
s(S'0011211110'
p271
I2
tp272
F-11.37373475008235
s(S'0101010000'
p273
I0
tp274
F709.7353774953402
s(S'1022000000'
p275
I0
tp276
I-10
s(S'1222221110'
p277
I0
tp278
F295.7985787080157
s(S'0011010010'
p279
I2
tp280
I502
s(S'0111211110'
p281
I1
tp282
F-11.488238098330232
s(S'0000022000'
p283
I1
tp284
F96.11902967791283
s(S'0002222110'
p285
I0
tp286
F85.88497675015032
s(S'2222112110'
p287
I1
tp288
I-10
s(S'0000110110'
p289
I0
tp290
F296.3704230415063
s(S'0111111000'
p291
I1
tp292
F52.42075493816739
s(S'0002002200'
p293
I0
tp294
I-10
s(S'0200022110'
p295
I2
tp296
F-14.011
s(S'2222202110'
p297
I1
tp298
F180.6955822208584
s(S'0000002200'
p299
I0
tp300
F-12.1
s(S'1100100110'
p301
I1
tp302
F54.535792560085724
s(S'0110111010'
p303
I1
tp304
F78.50396926152963
s(S'0002002110'
p305
I0
tp306
I-10
s(S'1100220000'
p307
I1
tp308
I-10
s(S'2000111100'
p309
I2
tp310
F116.96396546687215
s(S'2200020210'
p311
I0
tp312
I-10
s(S'1100000200'
p313
I2
tp314
I-10
s(S'0000100110'
p315
I1
tp316
F424.11313380942744
s(S'0001211110'
p317
I2
tp318
F57.503545392988485
s(S'0010100000'
p319
I2
tp320
F735.4907948458671
s(S'1112020000'
p321
I1
tp322
F-33.099999999999994
s(S'0010010110'
p323
I0
tp324
F193.86618593755085
s(S'0021211110'
p325
I1
tp326
I-10
s(S'0021000000'
p327
I2
tp328
F-12.1
s(S'0022211110'
p329
I0
tp330
F-13.656175715293562
s(S'2110011100'
p331
I0
tp332
I12
s(S'1222210000'
p333
I0
tp334
F57.638208716474075
s(S'2210000110'
p335
I2
tp336
F1032.5676386095847
s(S'2222220210'
p337
I0
tp338
I-10
s(S'0011100100'
p339
I2
tp340
F72.92217340184376
s(S'0110011110'
p341
I2
tp342
I-10
s(S'1110101110'
p343
I0
tp344
F265.54418931217
s(S'0012000020'
p345
I2
tp346
I0
s(S'0002002000'
p347
I1
tp348
I-10
s(S'0002000010'
p349
I0
tp350
F-10.0
s(S'0001002120'
p351
I0
tp352
I-10
s(S'1010000000'
p353
I0
tp354
I-10
s(S'0000012210'
p355
I1
tp356
I-10
s(S'1000111110'
p357
I0
tp358
I-10
s(S'0002211110'
p359
I1
tp360
F-17.90658366463265
s(S'0222221110'
p361
I1
tp362
F-14.011
s(S'0002220020'
p363
I2
tp364
F-3.0
s(S'2010000000'
p365
I0
tp366
I-10
s(S'0001111110'
p367
I1
tp368
F-9.067763281802394
s(S'0112021210'
p369
I0
tp370
I0
s(S'1012111110'
p371
I2
tp372
I-10
s(S'2210000110'
p373
I1
tp374
I-10
s(S'0110110010'
p375
I1
tp376
F33.40622335211174
s(S'2201000000'
p377
I2
tp378
I-10
s(S'2100000110'
p379
I0
tp380
I-10
s(S'0001000110'
p381
I0
tp382
I-10
s(S'0001100110'
p383
I2
tp384
F679.7142218998233
s(S'0000020220'
p385
I1
tp386
F189.86001712993573
s(S'0111011000'
p387
I0
tp388
F330.35710950145096
s(S'0220000010'
p389
I1
tp390
I-10
s(S'1011100110'
p391
I2
tp392
F87.12157332143443
s(S'1122221110'
p393
I2
tp394
I-10
s(S'0200200000'
p395
I0
tp396
I-10
s(S'1112220000'
p397
I0
tp398
F-3.5853560343152235
s(S'2221001110'
p399
I1
tp400
F-10.6
s(S'1120220000'
p401
I2
tp402
I-10
s(S'2222211000'
p403
I1
tp404
I-10
s(S'0022222110'
p405
I0
tp406
F-12.1
s(S'0111001100'
p407
I1
tp408
F82.47183541829193
s(S'1111111220'
p409
I2
tp410
F179.8553051259045
s(S'1110011110'
p411
I1
tp412
F131.16285458250962
s(S'0000011210'
p413
I2
tp414
I-10
s(S'0002020200'
p415
I2
tp416
I-10
s(S'1100000010'
p417
I2
tp418
I-10
s(S'1100210000'
p419
I1
tp420
I-10
s(S'0001022220'
p421
I1
tp422
I-10
s(S'0121111110'
p423
I2
tp424
I-10
s(S'0220000200'
p425
I0
tp426
I-10
s(S'2222100000'
p427
I2
tp428
F-11.469999999999999
s(S'1102200000'
p429
I2
tp430
F-12.1
s(S'0220001010'
p431
I1
tp432
I-10
s(S'0011121110'
p433
I2
tp434
F-12.1
s(S'1011101120'
p435
I0
tp436
F20.524945738598213
s(S'1111122020'
p437
I0
tp438
I-10
s(S'0112200000'
p439
I2
tp440
I-10
s(S'0200002220'
p441
I1
tp442
I0
s(S'0200222110'
p443
I0
tp444
I-10
s(S'0001221110'
p445
I2
tp446
I-10
s(S'2022000000'
p447
I2
tp448
I-10
s(S'0000012000'
p449
I0
tp450
F-12.1
s(S'1111122220'
p451
I0
tp452
F-0.019310365915026016
s(S'0001001000'
p453
I0
tp454
I-10
s(S'0012200020'
p455
I2
tp456
F0.0
s(S'0010000210'
p457
I1
tp458
I-5
s(S'2222212210'
p459
I0
tp460
I-10
s(S'2101110110'
p461
I0
tp462
F110.163556122623
s(S'2100000000'
p463
I0
tp464
F-12.1
s(S'1000201000'
p465
I0
tp466
I-10
s(S'0222220210'
p467
I2
tp468
F7.470126580261687
s(S'1100010100'
p469
I0
tp470
I508
s(S'0102221110'
p471
I2
tp472
I-10
s(S'1000000020'
p473
I0
tp474
I0
s(S'0200220000'
p475
I2
tp476
I-10
s(S'1101111010'
p477
I1
tp478
F294.84889909616373
s(S'2220002210'
p479
I0
tp480
I0
s(S'0011222110'
p481
I0
tp482
I-10
s(S'0011011110'
p483
I1
tp484
F180.09798872320323
s(S'0002202020'
p485
I1
tp486
I0
s(S'0101100110'
p487
I1
tp488
F66.11681621183575
s(S'1111111200'
p489
I0
tp490
F167.9313104266403
s(S'1220222200'
p491
I2
tp492
I0
s(S'2200001110'
p493
I2
tp494
F-31.322909278791602
s(S'0222111110'
p495
I0
tp496
F20.42256965066194
s(S'0111122010'
p497
I1
tp498
F0.0
s(S'1222200000'
p499
I1
tp500
F250.4724789747748
s(S'0221111100'
p501
I0
tp502
F-3.0344215585449774
s(S'0012222210'
p503
I2
tp504
I-10
s(S'0011010000'
p505
I0
tp506
F734.9793008113628
s(S'0000022200'
p507
I2
tp508
I-10
s(S'0100000000'
p509
I2
tp510
I-10
s(S'0000002020'
p511
I2
tp512
F28.23136774511776
s(S'0020000000'
p513
I2
tp514
F-7.3158115
s(S'1120200000'
p515
I2
tp516
F-43.6
s(S'0011000000'
p517
I1
tp518
F-13.595900209581957
s(S'2221100000'
p519
I0
tp520
I-10
s(S'0020002210'
p521
I0
tp522
I-10
s(S'2200022220'
p523
I0
tp524
I-10
s(S'0000012010'
p525
I1
tp526
I-10
s(S'1000212110'
p527
I0
tp528
I-10
s(S'2110111100'
p529
I0
tp530
I2
s(S'1111010110'
p531
I2
tp532
F445.00057133724215
s(S'0001010000'
p533
I1
tp534
F736.499315488556
s(S'0000001110'
p535
I0
tp536
F-17.13680283026576
s(S'2200000200'
p537
I1
tp538
I-10
s(S'0010000000'
p539
I0
tp540
I-10
s(S'1100001100'
p541
I1
tp542
I-10
s(S'0011101000'
p543
I0
tp544
F250.31132475460498
s(S'0101111010'
p545
I1
tp546
F225.8133125291683
s(S'0001210000'
p547
I0
tp548
I-10
s(S'1111112000'
p549
I1
tp550
I-10
s(S'1100010000'
p551
I1
tp552
F511.57912862037233
s(S'0111101100'
p553
I2
tp554
F269.20858748618843
s(S'0022002210'
p555
I0
tp556
I-10
s(S'2010001110'
p557
I0
tp558
I-10
s(S'2200111100'
p559
I0
tp560
I12
s(S'1101222220'
p561
I1
tp562
I0
s(S'0220000000'
p563
I1
tp564
F-12.1
s(S'1100000000'
p565
I0
tp566
F-132.685337868197
s(S'0000111110'
p567
I0
tp568
F0.22700619664362232
s(S'0222222220'
p569
I2
tp570
F-14.011
s(S'0200001110'
p571
I1
tp572
F513.6093968178789
s(S'1110000100'
p573
I0
tp574
I-10
s(S'1112022220'
p575
I0
tp576
I-105
s(S'1111112210'
p577
I0
tp578
I-10
s(S'1100100000'
p579
I1
tp580
I-10
s(S'1102111110'
p581
I1
tp582
I-10
s(S'0000222020'
p583
I1
tp584
F85.91138354480913
s(S'0000002220'
p585
I0
tp586
F71.38481474306998
s(S'0000001110'
p587
I2
tp588
F37.35235328219621
s(S'1222222110'
p589
I0
tp590
I-10
s(S'0111001000'
p591
I2
tp592
F184.44010591149126
s(S'2220211110'
p593
I2
tp594
F-10.583660425614852
s(S'0222222200'
p595
I2
tp596
F95.85820441174448
s(S'1202000020'
p597
I2
tp598
I0
s(S'1111000100'
p599
I2
tp600
F166.2900622693133
s(S'0012000210'
p601
I2
tp602
I0
s(S'2200000010'
p603
I0
tp604
I-10
s(S'0122222110'
p605
I1
tp606
F171.45672899802577
s(S'0001110110'
p607
I0
tp608
F228.4009022042025
s(S'1011001110'
p609
I2
tp610
F125.43411862398405
s(S'1001001000'
p611
I2
tp612
F707.43628185087
s(S'2000002000'
p613
I0
tp614
F0.9844213163309208
s(S'0022111110'
p615
I0
tp616
F2.5867436072041015
s(S'0100221110'
p617
I1
tp618
I-10
s(S'1100000020'
p619
I0
tp620
I-10
s(S'0200221110'
p621
I0
tp622
I-200
s(S'0002200020'
p623
I1
tp624
I-10
s(S'0111120110'
p625
I2
tp626
F0.0
s(S'2220001110'
p627
I2
tp628
F2261.001602864236
s(S'0111000010'
p629
I1
tp630
I0
s(S'1122200000'
p631
I1
tp632
I-10
s(S'1000200000'
p633
I2
tp634
I-10
s(S'2221000110'
p635
I0
tp636
F-10.0
s(S'1000000000'
p637
I1
tp638
F-128.14894847700364
s(S'0000200010'
p639
I2
tp640
I-10
s(S'0002021110'
p641
I1
tp642
F-16.1950049146953
s(S'0120000010'
p643
I0
tp644
I-10
s(S'1111100110'
p645
I1
tp646
F143.5944966873715
s(S'0000202110'
p647
I1
tp648
F-7.060677082457802
s(S'2222220020'
p649
I2
tp650
I-10
s(S'1220211110'
p651
I2
tp652
I-10
s(S'2200001100'
p653
I0
tp654
I2
s(S'0110000010'
p655
I1
tp656
F4318.231297355471
s(S'1000220000'
p657
I2
tp658
F-5.590000000000001
s(S'0000111100'
p659
I1
tp660
F457.9120913745936
s(S'1100200000'
p661
I2
tp662
I-10
s(S'0020222110'
p663
I2
tp664
I-10
s(S'2200022210'
p665
I2
tp666
F12.219255799618846
s(S'2221000010'
p667
I0
tp668
I-10
s(S'0100000010'
p669
I0
tp670
I-10
s(S'2002211110'
p671
I2
tp672
I-10
s(S'0001121110'
p673
I2
tp674
F-10.0
s(S'0200002210'
p675
I1
tp676
I-10
s(S'1000000110'
p677
I1
tp678
F-12.1
s(S'0110011010'
p679
I1
tp680
I502
s(S'1000022110'
p681
I1
tp682
F-12.1
s(S'0020001110'
p683
I2
tp684
F317.21629614911996
s(S'0000212110'
p685
I1
tp686
F5.2608776022326
s(S'2000011110'
p687
I0
tp688
F260.63079828809015
s(S'0120002120'
p689
I1
tp690
I0
s(S'0011022210'
p691
I1
tp692
I-10
s(S'0000002010'
p693
I2
tp694
I-10
s(S'1111200200'
p695
I2
tp696
I-10
s(S'0122000110'
p697
I2
tp698
F1478.1438066738272
s(S'0000000110'
p699
I1
tp700
F83.73363017274812
s(S'2200222110'
p701
I2
tp702
I-10
s(S'0100000100'
p703
I1
tp704
I-10
s(S'2000000020'
p705
I2
tp706
I-10
s(S'2002222110'
p707
I0
tp708
I-10
s(S'1222100000'
p709
I0
tp710
I-10
s(S'2200021210'
p711
I2
tp712
F37.73358172500463
s(S'1122222210'
p713
I2
tp714
I-10
s(S'0022202110'
p715
I0
tp716
F-12.1
s(S'0001011010'
p717
I1
tp718
F15.49041070233842
s(S'2222221210'
p719
I1
tp720
F-3.0
s(S'0111112110'
p721
I0
tp722
I-10
s(S'2000000000'
p723
I2
tp724
F-14.03230737987551
s(S'0000122220'
p725
I0
tp726
F89.77777751959553
s(S'0000002100'
p727
I0
tp728
I-10
s(S'0000000220'
p729
I1
tp730
F103.98225996453408
s(S'1122000000'
p731
I1
tp732
F952.3636029584222
s(S'1120000000'
p733
I2
tp734
I-10
s(S'2210000000'
p735
I0
tp736
F5131.955968500411
s(S'1120222200'
p737
I0
tp738
F26.347633672254794
s(S'2022211110'
p739
I0
tp740
F56.01408942590561
s(S'0020202110'
p741
I1
tp742
I-10
s(S'0100011010'
p743
I1
tp744
F25.241195893710763
s(S'1110002200'
p745
I1
tp746
I-10
s(S'1000100100'
p747
I2
tp748
F522.3703538599582
s(S'1100000100'
p749
I2
tp750
I-10
s(S'1122210000'
p751
I0
tp752
I-10
s(S'1112000000'
p753
I1
tp754
F-3.7
s(S'1011100010'
p755
I2
tp756
F59.719508761574176
s(S'0112022210'
p757
I0
tp758
I-10
s(S'1200000000'
p759
I0
tp760
I-135
s(S'0201111110'
p761
I1
tp762
I-5
s(S'0122212110'
p763
I1
tp764
F208.49488760356303
s(S'0020000110'
p765
I1
tp766
I-10
s(S'0000020020'
p767
I1
tp768
I-10
s(S'1110200000'
p769
I0
tp770
I-10
s(S'2222200000'
p771
I0
tp772
F-11.469999999999999
s(S'2211111100'
p773
I0
tp774
F22.26553462702595
s(S'0011001110'
p775
I2
tp776
F289.0029307881945
s(S'0012222220'
p777
I1
tp778
I-10
s(S'2222111000'
p779
I2
tp780
I-10
s(S'0122111110'
p781
I0
tp782
F4.535211639848427
s(S'1011111100'
p783
I2
tp784
F108.01877739104543
s(S'1111211110'
p785
I2
tp786
F12.116022658002617
s(S'1220011110'
p787
I0
tp788
I-10
s(S'0020011110'
p789
I1
tp790
I-5
s(S'1000000200'
p791
I0
tp792
I-10
s(S'0100010000'
p793
I1
tp794
I-10
s(S'2211110110'
p795
I2
tp796
F59.20484985915425
s(S'0011111010'
p797
I1
tp798
F395.2081689611233
s(S'2222021110'
p799
I2
tp800
I-10
s(S'0000021210'
p801
I0
tp802
F29.12404086612638
s(S'0001200000'
p803
I2
tp804
F-12.1
s(S'1111120200'
p805
I2
tp806
I-10
s(S'0011110100'
p807
I1
tp808
F382.75594207503406
s(S'0000100000'
p809
I2
tp810
F-13.633666128684528
s(S'0111111200'
p811
I0
tp812
I0
s(S'0002222020'
p813
I0
tp814
I-10
s(S'0100111110'
p815
I2
tp816
F327.93775665694216
s(S'2002210000'
p817
I2
tp818
I-10
s(S'1222220000'
p819
I1
tp820
I-10
s(S'1000021000'
p821
I1
tp822
I-10
s(S'1000100000'
p823
I0
tp824
F-11.725003
s(S'1111000110'
p825
I0
tp826
F213.79181185377678
s(S'0220022210'
p827
I1
tp828
I-10
s(S'2020000020'
p829
I0
tp830
I0
s(S'0000010000'
p831
I2
tp832
F856.0918621434304
s(S'2221110010'
p833
I1
tp834
F45.17204256016338
s(S'1111221100'
p835
I1
tp836
I-10
s(S'2110000000'
p837
I2
tp838
I-10
s(S'1122222220'
p839
I1
tp840
F20.67087577404672
s(S'0111110000'
p841
I1
tp842
I-10
s(S'2222111110'
p843
I2
tp844
F-15.38779562081578
s(S'0012000010'
p845
I2
tp846
I-10
s(S'1010110000'
p847
I0
tp848
I-10
s(S'0202211110'
p849
I2
tp850
I-10
s(S'0200002020'
p851
I0
tp852
F16.29367081898518
s(S'1001111110'
p853
I0
tp854
I-10
s(S'2000000010'
p855
I2
tp856
I-10
s(S'1111011000'
p857
I0
tp858
F426.55292603441893
s(S'0002000110'
p859
I2
tp860
F320.5371592074023
s(S'1111101000'
p861
I1
tp862
I-10
s(S'0220020210'
p863
I2
tp864
I-10
s(S'1202200000'
p865
I2
tp866
I-10
s(S'1111120000'
p867
I1
tp868
F-1.2713354406791533
s(S'2000001110'
p869
I2
tp870
F-15.697569726276118
s(S'0111011110'
p871
I0
tp872
F220.80274345271155
s(S'0022111000'
p873
I1
tp874
I-10
s(S'1122022000'
p875
I0
tp876
I-10
s(S'1120021210'
p877
I1
tp878
I-10
s(S'0000210000'
p879
I0
tp880
I-10
s(S'0200000210'
p881
I2
tp882
I-10
s(S'1001000000'
p883
I0
tp884
I-10
s(S'0011111120'
p885
I0
tp886
F14.231675429985238
s(S'2000022210'
p887
I0
tp888
F1.0578240993183607
s(S'2100000010'
p889
I2
tp890
I-150
s(S'0111120010'
p891
I0
tp892
F4.610853226670033
s(S'1222222200'
p893
I2
tp894
F14.494806358827606
s(S'2222200010'
p895
I1
tp896
I-40
s(S'0010101110'
p897
I0
tp898
F255.19205503220613
s(S'0222220020'
p899
I0
tp900
I-150
s(S'0000210000'
p901
I1
tp902
F-10.0
s(S'0112111110'
p903
I0
tp904
F-12.849699999999999
s(S'1122112200'
p905
I1
tp906
I-10
s(S'1011100000'
p907
I0
tp908
I-10
s(S'1120001110'
p909
I0
tp910
I-10
s(S'1111011200'
p911
I1
tp912
F-2.3561103138993356
s(S'1110000010'
p913
I1
tp914
F-12.1
s(S'0000021000'
p915
I1
tp916
I-10
s(S'0200000010'
p917
I0
tp918
I-10
s(S'1220001110'
p919
I2
tp920
F-12.1
s(S'1111200000'
p921
I0
tp922
F-12.1
s(S'0000111000'
p923
I0
tp924
F645.7323884447256
s(S'1121111110'
p925
I2
tp926
F22.549571104502466
s(S'0210011110'
p927
I2
tp928
I-10
s(S'0002222220'
p929
I2
tp930
F125.88062590231581
s(S'2002000020'
p931
I1
tp932
I0
s(S'0020020210'
p933
I2
tp934
I-200
s(S'0222220220'
p935
I2
tp936
I0
s(S'0000120110'
p937
I1
tp938
I-10
s(S'0122221210'
p939
I0
tp940
I-10
s(S'2221110000'
p941
I0
tp942
I-10
s(S'0010110110'
p943
I0
tp944
F374.9894274988923
s(S'2022000200'
p945
I1
tp946
I0
s(S'0221111010'
p947
I2
tp948
F14.5092693420056
s(S'2222000220'
p949
I1
tp950
I-10
s(S'2001111010'
p951
I1
tp952
F111.37874594508199
s(S'1000020000'
p953
I0
tp954
I-10
s(S'2222022110'
p955
I0
tp956
I-10
s(S'0010000010'
p957
I2
tp958
F813.5821265354942
s(S'2002111110'
p959
I0
tp960
F44.70305289140164
s(S'0100010100'
p961
I1
tp962
F340.7815716050777
s(S'0012222110'
p963
I1
tp964
I-15
s(S'1002000020'
p965
I2
tp966
I-10
s(S'0010111110'
p967
I1
tp968
F138.43011286522113
s(S'0020000020'
p969
I1
tp970
I-10
s(S'1110000200'
p971
I0
tp972
I-10
s(S'2211111110'
p973
I1
tp974
F-3.703702999999999
s(S'1011110110'
p975
I0
tp976
F86.36322424417766
s(S'2222222200'
p977
I0
tp978
F-11.498626546209467
s(S'0001111100'
p979
I1
tp980
F-0.8016978759315521
s(S'0000010100'
p981
I0
tp982
F716.412628859442
s(S'0220002210'
p983
I0
tp984
I0
s(S'0000000200'
p985
I1
tp986
F75.21448720066846
s(S'0000202220'
p987
I1
tp988
F44.094485720574795
s(S'2222000110'
p989
I0
tp990
I-10
s(S'1122100000'
p991
I0
tp992
I-10
s(S'0022200210'
p993
I2
tp994
I-10
s(S'1111010100'
p995
I2
tp996
F85.40309146130097
s(S'1122111110'
p997
I0
tp998
I-10
s(S'0002200000'
p999
I1
tp1000
F-13.57
s(S'0001220000'
p1001
I1
tp1002
I-10
s(S'0100111010'
p1003
I2
tp1004
F89.70184232608064
s(S'1011110000'
p1005
I2
tp1006
I-10
s(S'0000100100'
p1007
I2
tp1008
I-10
s(S'1110012000'
p1009
I0
tp1010
I-10
s(S'0101101110'
p1011
I1
tp1012
F81.74053423178778
s(S'2222000000'
p1013
I1
tp1014
F66.98259259746112
s(S'1222221110'
p1015
I1
tp1016
I-10
s(S'0000112110'
p1017
I0
tp1018
F-10.0
s(S'0001021210'
p1019
I1
tp1020
I0
s(S'2222022110'
p1021
I2
tp1022
F-3.0
s(S'0002222110'
p1023
I1
tp1024
I-15
s(S'2222112110'
p1025
I2
tp1026
I-10
s(S'1111122200'
p1027
I2
tp1028
F-12.1
s(S'2222222210'
p1029
I2
tp1030
I-10
s(S'2220002020'
p1031
I0
tp1032
I0
s(S'0111111000'
p1033
I2
tp1034
I-10
s(S'0012000110'
p1035
I2
tp1036
F-8.98009357550752
s(S'0002002200'
p1037
I1
tp1038
I-10
s(S'0110111110'
p1039
I2
tp1040
F-6.994152253215337
s(S'0000010010'
p1041
I0
tp1042
I-10
s(S'0210001110'
p1043
I2
tp1044
F-12.380476
s(S'1111121110'
p1045
I0
tp1046
I0
s(S'0100001110'
p1047
I0
tp1048
F2477.1500129191036
s(S'0000002200'
p1049
I1
tp1050
F56.59890807673964
s(S'0002111000'
p1051
I1
tp1052
I-10
s(S'1220000000'
p1053
I2
tp1054
I-10
s(S'1011000110'
p1055
I2
tp1056
F45.88304053290444
s(S'0011011100'
p1057
I1
tp1058
F206.20356334951111
s(S'0000000110'
p1059
I0
tp1060
F-59.954045058675405
s(S'0002002110'
p1061
I1
tp1062
I0
s(S'2002000000'
p1063
I2
tp1064
I-10
s(S'2101111010'
p1065
I1
tp1066
I19
s(S'0001211110'
p1067
I1
tp1068
I-10
s(S'2210001110'
p1069
I0
tp1070
F37.268274216176074
s(S'1112020000'
p1071
I0
tp1072
F-14.011
s(S'0021211110'
p1073
I0
tp1074
I-10
s(S'0021000000'
p1075
I1
tp1076
F-11.284262446984078
s(S'1111112200'
p1077
I0
tp1078
F1496.744478144471
s(S'1110020000'
p1079
I2
tp1080
I-10
s(S'0022211110'
p1081
I1
tp1082
F-12.766418763629773
s(S'1222210000'
p1083
I1
tp1084
F-12.1
s(S'1001111110'
p1085
I1
tp1086
I-10
s(S'0111101000'
p1087
I2
tp1088
F400.7059557543639
s(S'2111101100'
p1089
I1
tp1090
F55.199638495437284
s(S'1010000000'
p1091
I1
tp1092
F477.0132922954102
s(S'0000000020'
p1093
I0
tp1094
I-10
s(S'0001101010'
p1095
I2
tp1096
F467.8574272468777
s(S'1000111110'
p1097
I1
tp1098
F0.6262221903292438
s(S'1122220000'
p1099
I0
tp1100
F-14.705415959001073
s(S'0211000010'
p1101
I0
tp1102
I-10
s(S'2221111110'
p1103
I0
tp1104
F12.60833484290391
s(S'0001111110'
p1105
I2
tp1106
F-13.27611743338734
s(S'0020002110'
p1107
I0
tp1108
I-10
s(S'2210000110'
p1109
I0
tp1110
I-10
s(S'0012111110'
p1111
I0
tp1112
F7.701706630342581
s(S'0000200210'
p1113
I2
tp1114
I-10
s(S'0220000010'
p1115
I0
tp1116
I-10
s(S'1122221110'
p1117
I1
tp1118
I-10
s(S'0200200000'
p1119
I1
tp1120
I-10
s(S'1112111100'
p1121
I1
tp1122
I-10
s(S'0000220020'
p1123
I1
tp1124
I-10
s(S'0021000110'
p1125
I2
tp1126
I-10
s(S'2222212110'
p1127
I0
tp1128
F46.788504805516666
s(S'2221001110'
p1129
I2
tp1130
I-10
s(S'0011101110'
p1131
I2
tp1132
F338.65904349211036
s(S'0022222110'
p1133
I1
tp1134
F-13.6
s(S'2110111110'
p1135
I2
tp1136
F84.95945681511654
s(S'1111111010'
p1137
I2
tp1138
F134.1227207244991
s(S'0000002110'
p1139
I0
tp1140
I-10
s(S'1111111120'
p1141
I0
tp1142
I0
s(S'0000011210'
p1143
I1
tp1144
I-10
s(S'1011000000'
p1145
I1
tp1146
F721.4467462454396
s(S'1100210000'
p1147
I0
tp1148
I-10
s(S'0111100100'
p1149
I2
tp1150
F305.06469229479694
s(S'1202200000'
p1151
I0
tp1152
F167.19872869614727
s(S'1102220000'
p1153
I2
tp1154
F-10.0
s(S'0220000200'
p1155
I1
tp1156
I-10
s(S'2222100000'
p1157
I1
tp1158
F-6.273654677895929
s(S'0200000200'
p1159
I2
tp1160
I-10
s(S'1222222000'
p1161
I2
tp1162
I-10
s(S'0022000000'
p1163
I1
tp1164
F18.671631809359692
s(S'0222222000'
p1165
I0
tp1166
I-10
s(S'2112000210'
p1167
I1
tp1168
I-10
s(S'1002000000'
p1169
I2
tp1170
F262.27882145603246
s(S'0200222110'
p1171
I1
tp1172
F9.609429690593242
s(S'2000022020'
p1173
I0
tp1174
I-10
s(S'0002221210'
p1175
I2
tp1176
I0
s(S'0100011100'
p1177
I1
tp1178
F111.71732458271192
s(S'2020000000'
p1179
I0
tp1180
I-10
s(S'1200011110'
p1181
I0
tp1182
F218.96073963929157
s(S'0010000210'
p1183
I2
tp1184
F0.5
s(S'0000222220'
p1185
I0
tp1186
F-15.102737101
s(S'0220221110'
p1187
I1
tp1188
I-10
s(S'2222100110'
p1189
I0
tp1190
I-10
s(S'0222220210'
p1191
I1
tp1192
F-35.16935373243103
s(S'0000120000'
p1193
I1
tp1194
I-10
s(S'0200002000'
p1195
I0
tp1196
I-10
s(S'0021011110'
p1197
I0
tp1198
I-10
s(S'2100000020'
p1199
I2
tp1200
F342.268225649109
s(S'0011011110'
p1201
I2
tp1202
F-12.480087550534652
s(S'1111000000'
p1203
I0
tp1204
F-4.51990710258672
s(S'1111212210'
p1205
I1
tp1206
I0
s(S'2222211010'
p1207
I1
tp1208
I-10
s(S'1220200000'
p1209
I2
tp1210
I-10
s(S'1110100110'
p1211
I2
tp1212
F247.6806998216117
s(S'0022222020'
p1213
I0
tp1214
I-10
s(S'0101101100'
p1215
I2
tp1216
I10
s(S'1202222220'
p1217
I1
tp1218
F167.46927236864497
s(S'0202000200'
p1219
I1
tp1220
I-10
s(S'0010100100'
p1221
I1
tp1222
F554.9860290069834
s(S'0011000000'
p1223
I2
tp1224
I-10
s(S'2221100000'
p1225
I1
tp1226
F-10.0
s(S'2222202110'
p1227
I2
tp1228
F-22.876952226553662
s(S'0210111100'
p1229
I1
tp1230
I28
s(S'0120011110'
p1231
I2
tp1232
I-10
s(S'1000212110'
p1233
I1
tp1234
I-10
s(S'0111101010'
p1235
I0
tp1236
F117.44845759339869
s(S'0000011100'
p1237
I2
tp1238
F787.5278526148181
s(S'0001110000'
p1239
I2
tp1240
F597.9036615376417
s(S'0000001110'
p1241
I1
tp1242
F-18.56753706310964
s(S'2222111100'
p1243
I2
tp1244
F-16.563939713546365
s(S'2222111100'
p1245
I0
tp1246
F-15.371480752374179
s(S'0000000220'
p1247
I2
tp1248
I-10
s(S'2220221110'
p1249
I0
tp1250
F-12.1
s(S'2201100000'
p1251
I2
tp1252
I-10
s(S'0220022210'
p1253
I2
tp1254
F149.7522224514044
s(S'2200000000'
p1255
I0
tp1256
I-50
s(S'0000120110'
p1257
I2
tp1258
I-10
s(S'2000001100'
p1259
I2
tp1260
I-10
s(S'1100000000'
p1261
I1
tp1262
F124.93549066660013
s(S'0200001110'
p1263
I0
tp1264
F-19.011419707593053
s(S'1222222000'
p1265
I1
tp1266
I-10
s(S'1110000100'
p1267
I1
tp1268
I-10
s(S'0112222220'
p1269
I1
tp1270
I-10
s(S'1100100000'
p1271
I0
tp1272
F673.5684597158486
s(S'1102111110'
p1273
I0
tp1274
F-6.883348905913359
s(S'0000002220'
p1275
I1
tp1276
I-10
s(S'0000022220'
p1277
I0
tp1278
F101.17261534839379
s(S'1200000210'
p1279
I1
tp1280
I-10
s(S'0001202210'
p1281
I2
tp1282
I-10
s(S'1111222220'
p1283
I0
tp1284
F-10.889999999999997
s(S'0110111000'
p1285
I2
tp1286
F412.40486546316583
s(S'0122222110'
p1287
I0
tp1288
I-15
s(S'1100110110'
p1289
I2
tp1290
I-10
s(S'0210000000'
p1291
I2
tp1292
F-10.0
s(S'0020022000'
p1293
I0
tp1294
I-10
s(S'2201111000'
p1295
I1
tp1296
I27
s(S'2111110010'
p1297
I1
tp1298
F8.0
s(S'2100011100'
p1299
I0
tp1300
F838.4829825575881
s(S'0002200020'
p1301
I2
tp1302
I-10
s(S'1222000010'
p1303
I0
tp1304
I-10
s(S'1222212110'
p1305
I1
tp1306
I-10
s(S'1101001000'
p1307
I0
tp1308
F658.3470584562626
s(S'2021111110'
p1309
I0
tp1310
F138.72843610452958
s(S'2220100000'
p1311
I2
tp1312
I-10
s(S'1111000200'
p1313
I2
tp1314
F34032.97784785028
s(S'1000000000'
p1315
I0
tp1316
F30.575923371866082
s(S'0002020210'
p1317
I2
tp1318
I-10
s(S'2211100000'
p1319
I2
tp1320
I-10
s(S'0002021110'
p1321
I0
tp1322
F2.7927213989008086
s(S'2001110110'
p1323
I0
tp1324
I0
s(S'0000202110'
p1325
I2
tp1326
F-38.15805268531837
s(S'0000021010'
p1327
I0
tp1328
I-10
s(S'0000022020'
p1329
I2
tp1330
I-10
s(S'0000202020'
p1331
I0
tp1332
F84.76977727095299
s(S'0002000200'
p1333
I0
tp1334
F-12.1
s(S'1111111000'
p1335
I2
tp1336
F-1.1799999999999997
s(S'1000220000'
p1337
I1
tp1338
I-10
s(S'0222021110'
p1339
I1
tp1340
I-10
s(S'1222222220'
p1341
I2
tp1342
F-2.5925218160420145
s(S'1100021000'
p1343
I0
tp1344
I-10
s(S'0100000010'
p1345
I1
tp1346
F2605.424242508572
s(S'0020211110'
p1347
I0
tp1348
F-12.953731900000001
s(S'0220002200'
p1349
I2
tp1350
I-10
s(S'0200002210'
p1351
I0
tp1352
I0
s(S'0111211110'
p1353
I2
tp1354
I-10
s(S'1000000110'
p1355
I0
tp1356
F620.3091850779899
s(S'0021111000'
p1357
I2
tp1358
I-10
s(S'1111101100'
p1359
I2
tp1360
F71.67089182967307
s(S'0200000110'
p1361
I2
tp1362
F-12.1
s(S'0020001110'
p1363
I1
tp1364
I-10
s(S'0000212110'
p1365
I0
tp1366
F-12.71509
s(S'1002000010'
p1367
I0
tp1368
I-10
s(S'0120002120'
p1369
I2
tp1370
I-200
s(S'0001101110'
p1371
I1
tp1372
F146.38997662682803
s(S'0002002220'
p1373
I1
tp1374
I-10
s(S'1000110010'
p1375
I0
tp1376
I0
s(S'0001000000'
p1377
I2
tp1378
F797.043058572314
s(S'0122000110'
p1379
I1
tp1380
F-12.1
s(S'0000222110'
p1381
I1
tp1382
F-50.16244683067235
s(S'1000002020'
p1383
I2
tp1384
I-10
s(S'1111122120'
p1385
I0
tp1386
I-10
s(S'1000001100'
p1387
I2
tp1388
I-10
s(S'0010101100'
p1389
I2
tp1390
I7
s(S'1221111100'
p1391
I2
tp1392
F8.7
s(S'0101111000'
p1393
I2
tp1394
F523.0951394753077
s(S'0000200110'
p1395
I0
tp1396
I-10
s(S'2200111110'
p1397
I1
tp1398
F124.80768291773823
s(S'0022202110'
p1399
I1
tp1400
F36.63545682108794
s(S'2222221210'
p1401
I2
tp1402
F209.79945866623294
s(S'0010111000'
p1403
I2
tp1404
F94.08018669737645
s(S'0222000000'
p1405
I0
tp1406
F266.7648640968174
s(S'1220020000'
p1407
I2
tp1408
I-10
s(S'0222222020'
p1409
I0
tp1410
F-3.0
s(S'1122000000'
p1411
I2
tp1412
I-10
s(S'2201111100'
p1413
I1
tp1414
F66.21248263235253
s(S'1100002000'
p1415
I2
tp1416
I-10
s(S'0000200020'
p1417
I0
tp1418
F-60.0
s(S'2000020210'
p1419
I1
tp1420
F-15.847246493627551
s(S'1110110000'
p1421
I1
tp1422
F668.792169587344
s(S'1110100100'
p1423
I0
tp1424
F396.5201152823591
s(S'1101011000'
p1425
I2
tp1426
F12.189948518210759
s(S'1211110110'
p1427
I1
tp1428
I8
s(S'1000222110'
p1429
I0
tp1430
I-10
s(S'1110002200'
p1431
I0
tp1432
F1.1896699132442683
s(S'1112100000'
p1433
I0
tp1434
I-10
s(S'2000010000'
p1435
I1
tp1436
I-10
s(S'1011101110'
p1437
I0
tp1438
F64.20593965129319
s(S'0220001110'
p1439
I1
tp1440
F1046.215864200575
s(S'0202221110'
p1441
I0
tp1442
I-10
s(S'0000000000'
p1443
I0
tp1444
F20.91568971768886
s(S'1100000100'
p1445
I1
tp1446
I-10
s(S'0002220000'
p1447
I0
tp1448
F-12.1
s(S'1112000000'
p1449
I0
tp1450
I-10
s(S'1110000000'
p1451
I1
tp1452
F-12.372698153447214
s(S'0101111110'
p1453
I2
tp1454
I-10
s(S'2000020000'
p1455
I1
tp1456
I-10
s(S'1111000020'
p1457
I0
tp1458
I-10
s(S'0122212110'
p1459
I2
tp1460
F-12.1
s(S'1020000010'
p1461
I0
tp1462
I-10
s(S'1100101110'
p1463
I0
tp1464
F626.7136022766133
s(S'2211000110'
p1465
I1
tp1466
I-10
s(S'2222200000'
p1467
I1
tp1468
F110.1752954168674
s(S'2011001110'
p1469
I2
tp1470
I-10
s(S'0000120210'
p1471
I2
tp1472
I0
s(S'1111112020'
p1473
I2
tp1474
F201.6412835776018
s(S'1112211110'
p1475
I2
tp1476
F14.539244134077903
s(S'2222202210'
p1477
I1
tp1478
F14.905069658803711
s(S'0122111110'
p1479
I1
tp1480
I-10
s(S'0122222120'
p1481
I1
tp1482
I0
s(S'0020011110'
p1483
I2
tp1484
I-10
s(S'1220002220'
p1485
I0
tp1486
I0
s(S'2000222110'
p1487
I0
tp1488
F-11.772584289135233
s(S'0000022210'
p1489
I0
tp1490
F-12.1
s(S'0222202110'
p1491
I0
tp1492
F407.4473395785308
s(S'2222021110'
p1493
I1
tp1494
F49.689197424323545
s(S'0000021210'
p1495
I1
tp1496
F-12.1
s(S'1110221000'
p1497
I2
tp1498
I-10
s(S'1111111100'
p1499
I0
tp1500
F33.693518377734385
s(S'0222222210'
p1501
I2
tp1502
F644.0211933277772
s(S'2022222200'
p1503
I0
tp1504
F-3.0
s(S'0000100000'
p1505
I1
tp1506
F853.6368719811117
s(S'0111111200'
p1507
I1
tp1508
F5.7
s(S'1222220000'
p1509
I0
tp1510
I-10
s(S'1000021000'
p1511
I2
tp1512
I-10
s(S'1000100000'
p1513
I1
tp1514
F-8.2143
s(S'2222221110'
p1515
I2
tp1516
I-10
s(S'0011020020'
p1517
I1
tp1518
I-5
s(S'0000012110'
p1519
I1
tp1520
I-10
s(S'1000000220'
p1521
I2
tp1522
F123.76346172377188
s(S'1122022210'
p1523
I0
tp1524
I-10
s(S'0222100000'
p1525
I1
tp1526
I7890
s(S'0111110000'
p1527
I0
tp1528
F327.72178340940854
s(S'2220211110'
p1529
I1
tp1530
I-10
s(S'2222111110'
p1531
I1
tp1532
F3.1454792019869284
s(S'0100110000'
p1533
I2
tp1534
F431.2470671596543
s(S'0001011100'
p1535
I0
tp1536
F115.28709591943242
s(S'0022100000'
p1537
I2
tp1538
I-10
s(S'0022000010'
p1539
I0
tp1540
F-12.1
s(S'0100021210'
p1541
I1
tp1542
I0
s(S'0200002020'
p1543
I1
tp1544
F-59.51398364894849
s(S'0101001110'
p1545
I0
tp1546
F135.4315714406471
s(S'1100111010'
p1547
I1
tp1548
F207.15508407944904
s(S'1000220000'
p1549
I0
tp1550
F-10.0
s(S'2002222200'
p1551
I0
tp1552
I-10
s(S'0110110000'
p1553
I0
tp1554
F297.1146688102452
s(S'0000100110'
p1555
I0
tp1556
F-10.804587944927375
s(S'0220020210'
p1557
I1
tp1558
I-10
s(S'0000200200'
p1559
I2
tp1560
I0
s(S'1111120000'
p1561
I0
tp1562
F-3.0
s(S'2000001110'
p1563
I1
tp1564
F333.64980281707767
s(S'0002022110'
p1565
I2
tp1566
I-10
s(S'2202000000'
p1567
I1
tp1568
F16.817991642386
s(S'2220002000'
p1569
I0
tp1570
I-10
s(S'1222021210'
p1571
I2
tp1572
I-10
s(S'2222121110'
p1573
I2
tp1574
F82.34492426436871
s(S'0010011000'
p1575
I0
tp1576
F506.5210205895659
s(S'2011110110'
p1577
I2
tp1578
F20.500482460776773
s(S'0000011220'
p1579
I1
tp1580
F101.83775150236283
s(S'2022200000'
p1581
I2
tp1582
I-10
s(S'1122211110'
p1583
I0
tp1584
F-10.0
s(S'2212111110'
p1585
I0
tp1586
I-10
s(S'2000200010'
p1587
I2
tp1588
I-10
s(S'0000100010'
p1589
I0
tp1590
F-9.00401162194078
s(S'0111120010'
p1591
I2
tp1592
F0.0
s(S'0011111120'
p1593
I1
tp1594
F0.0
s(S'2200022110'
p1595
I0
tp1596
F-12.19146712231625
s(S'1102221000'
p1597
I1
tp1598
I-10
s(S'0112001110'
p1599
I1
tp1600
I-10
s(S'2222200010'
p1601
I0
tp1602
I-10
s(S'0100101000'
p1603
I2
tp1604
I5
s(S'1212000010'
p1605
I2
tp1606
I-10
s(S'0200202110'
p1607
I2
tp1608
F-12.1
s(S'0002221110'
p1609
I2
tp1610
F-58.31738853204983
s(S'2100111110'
p1611
I0
tp1612
I2
s(S'1011100000'
p1613
I1
tp1614
F259.6801161829786
s(S'0012200210'
p1615
I0
tp1616
I0
s(S'2121111110'
p1617
I2
tp1618
F35.66583669244719
s(S'0002122110'
p1619
I2
tp1620
I-10
s(S'1221211110'
p1621
I2
tp1622
I-10
s(S'0200111110'
p1623
I0
tp1624
F263.60016892900603
s(S'1101011100'
p1625
I1
tp1626
F59.77182548139681
s(S'1110000010'
p1627
I2
tp1628
F-12.1
s(S'0111122220'
p1629
I1
tp1630
I-10
s(S'0000020010'
p1631
I0
tp1632
I-10
s(S'1100000110'
p1633
I1
tp1634
F1366.7958513595922
s(S'0010000110'
p1635
I1
tp1636
I-10
s(S'1111200000'
p1637
I1
tp1638
F-12.1
s(S'2220000000'
p1639
I0
tp1640
I-10
s(S'1111110000'
p1641
I0
tp1642
F-15.245071959746157
s(S'0010111010'
p1643
I2
tp1644
F68.73576293077237
s(S'0001120000'
p1645
I2
tp1646
I-10
s(S'0101110010'
p1647
I2
tp1648
F95.58395396359808
s(S'2222222120'
p1649
I1
tp1650
F149.12479509320016
s(S'2222220220'
p1651
I2
tp1652
F32.24983984429979
s(S'0000101010'
p1653
I2
tp1654
F274.6604428797507
s(S'0000100200'
p1655
I1
tp1656
I-5
s(S'0022000200'
p1657
I1
tp1658
I-10
s(S'1100000020'
p1659
I1
tp1660
F941.0197691751687
s(S'1000010000'
p1661
I0
tp1662
I-10
s(S'0111100000'
p1663
I2
tp1664
I-10
s(S'1110010110'
p1665
I2
tp1666
F312.2677348617209
s(S'1110220000'
p1667
I1
tp1668
I-10
s(S'0100000110'
p1669
I2
tp1670
I-10
s(S'1120011110'
p1671
I2
tp1672
I-10
s(S'1101111110'
p1673
I2
tp1674
F79.34682468792519
s(S'1111001000'
p1675
I2
tp1676
F605.099314165474
s(S'2211111110'
p1677
I0
tp1678
I-10
s(S'2222222200'
p1679
I1
tp1680
F79.472704581416
s(S'0002222020'
p1681
I1
tp1682
I-10
s(S'0011102210'
p1683
I0
tp1684
I-10
s(S'0020022020'
p1685
I0
tp1686
I0
s(S'1002211110'
p1687
I2
tp1688
I-10
s(S'1001000000'
p1689
I1
tp1690
F731.4691081614908
s(S'1111111220'
p1691
I0
tp1692
F0.0
s(S'0200221000'
p1693
I1
tp1694
I-10
s(S'0002100000'
p1695
I2
tp1696
I-10
s(S'2220000100'
p1697
I2
tp1698
I-10
s(S'0011200000'
p1699
I0
tp1700
F157.0419389300322
s(S'1112200000'
p1701
I1
tp1702
I-10
s(S'2210111110'
p1703
I1
tp1704
I-5
s(S'0101011110'
p1705
I1
tp1706
F64.07432206459657
s(S'1202000000'
p1707
I2
tp1708
I-10
s(S'1011110000'
p1709
I1
tp1710
F471.2785989144811
s(S'1001222220'
p1711
I1
tp1712
F-34.5
s(S'1002200000'
p1713
I1
tp1714
I-10
s(S'0001220000'
p1715
I0
tp1716
I-10
s(S'0002000220'
p1717
I1
tp1718
I-10
s(S'0000202000'
p1719
I0
tp1720
I-10
s(S'0011211110'
p1721
I0
tp1722
F-12.1
s(S'0020002220'
p1723
I2
tp1724
I-10
s(S'0000112110'
p1725
I1
tp1726
I-10
s(S'1200210000'
p1727
I2
tp1728
I-10
s(S'2221110110'
p1729
I2
tp1730
I-10
s(S'0000121110'
p1731
I2
tp1732
F290.9
s(S'2101111110'
p1733
I2
tp1734
F59.1292310418124
s(S'0002222110'
p1735
I2
tp1736
I-10
s(S'0221000000'
p1737
I1
tp1738
I-10
s(S'0012000110'
p1739
I1
tp1740
F762.504215742309
s(S'0101000000'
p1741
I2
tp1742
I0
s(S'1112020020'
p1743
I2
tp1744
I-10
s(S'0110001110'
p1745
I0
tp1746
F1133.2798415502557
s(S'0000010010'
p1747
I1
tp1748
F-12.1
s(S'0200022110'
p1749
I0
tp1750
F-13.219425881233745
s(S'1000000010'
p1751
I2
tp1752
F-10.0
s(S'0000102120'
p1753
I1
tp1754
I0
s(S'1122221000'
p1755
I2
tp1756
I-10
s(S'1111121110'
p1757
I1
tp1758
I0
s(S'0100001110'
p1759
I1
tp1760
F-11.72905347300075
s(S'1111222200'
p1761
I1
tp1762
I0
s(S'0020000010'
p1763
I1
tp1764
I-10
s(S'1220000000'
p1765
I1
tp1766
I-10
s(S'0202111110'
p1767
I2
tp1768
I-10
s(S'0002002110'
p1769
I2
tp1770
I0
s(S'0111001010'
p1771
I1
tp1772
F248.3545902327536
s(S'1100000200'
p1773
I0
tp1774
F146.4916701582506
s(S'0002002020'
p1775
I0
tp1776
F20.95382452726296
s(S'0001211110'
p1777
I0
tp1778
I-10
s(S'0022022210'
p1779
I1
tp1780
I0
s(S'2210001110'
p1781
I1
tp1782
I-10
s(S'0121111110'
p1783
I0
tp1784
I-10
s(S'0011212110'
p1785
I1
tp1786
I-10
s(S'0012211110'
p1787
I2
tp1788
I-200
s(S'0021000000'
p1789
I0
tp1790
F-12.1
s(S'1111112200'
p1791
I1
tp1792
F-12.1
s(S'1110020000'
p1793
I1
tp1794
I-10
s(S'1111220220'
p1795
I2
tp1796
I-10
s(S'2222222100'
p1797
I2
tp1798
I-10
s(S'0022211110'
p1799
I2
tp1800
F-14.41231
s(S'2222211110'
p1801
I0
tp1802
F-18.184624
s(S'1222210000'
p1803
I2
tp1804
F-12.1
s(S'2222220210'
p1805
I2
tp1806
F91.11369718997321
s(S'1111110100'
p1807
I2
tp1808
I-10
s(S'0000202210'
p1809
I1
tp1810
I-10
s(S'2022222200'
p1811
I1
tp1812
I-10
s(S'0012000020'
p1813
I0
tp1814
I0
s(S'0001111000'
p1815
I2
tp1816
F501.8623647103611
s(S'0000011000'
p1817
I1
tp1818
F869.7301953224003
s(S'0002000010'
p1819
I2
tp1820
I-250
s(S'2222212110'
p1821
I1
tp1822
I-10
s(S'0001110100'
p1823
I1
tp1824
F441.3683135626687
s(S'0020222210'
p1825
I0
tp1826
I-10
s(S'0012002020'
p1827
I2
tp1828
I-10
s(S'0000000020'
p1829
I1
tp1830
F-26.50565049752658
s(S'1122220000'
p1831
I1
tp1832
F-15.750009999999998
s(S'0002220020'
p1833
I0
tp1834
F45.81837894890853
s(S'1111000010'
p1835
I2
tp1836
I-10
s(S'1001110100'
p1837
I2
tp1838
F132.60680969925465
s(S'2220000010'
p1839
I1
tp1840
I-10
s(S'2221111110'
p1841
I1
tp1842
F-12.216033100617802
s(S'0000220000'
p1843
I2
tp1844
F143.03313341421983
s(S'0110000110'
p1845
I2
tp1846
F4584.848278836449
s(S'2020002200'
p1847
I0
tp1848
I0
s(S'0012111110'
p1849
I1
tp1850
F-12.08524105373805
s(S'2100000110'
p1851
I2
tp1852
F-12.849699999999999
s(S'2020000200'
p1853
I0
tp1854
I-10
s(S'0100000210'
p1855
I2
tp1856
I-10
s(S'0000200210'
p1857
I1
tp1858
I0
s(S'1200222110'
p1859
I0
tp1860
I-10
s(S'1122221110'
p1861
I0
tp1862
F15.236142556183115
s(S'2221211110'
p1863
I1
tp1864
F48.18749229821925
s(S'1221000000'
p1865
I1
tp1866
I-10
s(S'0001200020'
p1867
I1
tp1868
I0
s(S'0000220020'
p1869
I2
tp1870
F0.0
s(S'0222222110'
p1871
I0
tp1872
F-11.512768033907228
s(S'2201100010'
p1873
I0
tp1874
I-10
s(S'1201111110'
p1875
I0
tp1876
F48.3382729090359
s(S'0120002210'
p1877
I1
tp1878
I-10
s(S'1120220000'
p1879
I0
tp1880
I-10
s(S'2110000110'
p1881
I0
tp1882
I-10
s(S'1122002210'
p1883
I2
tp1884
I-10
s(S'1011101100'
p1885
I2
tp1886
F94.92326013988506
s(S'0002000210'
p1887
I2
tp1888
I-10
s(S'0022220000'
p1889
I2
tp1890
F-13.437699999999998
s(S'0111121110'
p1891
I2
tp1892
I-10
s(S'0000002110'
p1893
I1
tp1894
F105.79591635010823
s(S'1111111120'
p1895
I1
tp1896
F156.45732225745496
s(S'0000011210'
p1897
I0
tp1898
I0
s(S'1011000000'
p1899
I0
tp1900
I0
s(S'0012000220'
p1901
I1
tp1902
I0
s(S'0111222110'
p1903
I2
tp1904
I-10
s(S'0022111110'
p1905
I1
tp1906
F-9.82230626155339
s(S'0220000200'
p1907
I2
tp1908
F-6.950234784621181
s(S'2222100000'
p1909
I0
tp1910
F-12.1
s(S'0111000010'
p1911
I0
tp1912
F83.64542171131001
s(S'1112202200'
p1913
I2
tp1914
I-10
s(S'0222222000'
p1915
I1
tp1916
F42.575397407020134
s(S'1111122020'
p1917
I2
tp1918
F0.0
s(S'1100100010'
p1919
I1
tp1920
I7
s(S'0200222110'
p1921
I2
tp1922
I-10
s(S'0001221110'
p1923
I0
tp1924
F-12.1
s(S'2000022020'
p1925
I1
tp1926
I-10
s(S'2020000000'
p1927
I1
tp1928
F96.87634412453869
s(S'0222212110'
p1929
I1
tp1930
I-10
s(S'0001001000'
p1931
I2
tp1932
F807.9425694357757
s(S'1110221110'
p1933
I2
tp1934
I-10
s(S'2200002000'
p1935
I1
tp1936
I-10
s(S'1200001110'
p1937
I2
tp1938
F-12.1
s(S'1101110010'
p1939
I0
tp1940
I-10
s(S'0222220210'
p1941
I0
tp1942
F-36.690533588109695
s(S'0220000020'
p1943
I0
tp1944
I0
s(S'0000120000'
p1945
I0
tp1946
F1259.593302835272
s(S'1000000020'
p1947
I2
tp1948
I-10
s(S'0001122120'
p1949
I1
tp1950
F-3.0
s(S'0200002000'
p1951
I1
tp1952
I-10
s(S'0022002020'
p1953
I2
tp1954
F36.16793858036622
s(S'0000010000'
p1955
I1
tp1956
F-72.75001
s(S'1122112200'
p1957
I0
tp1958
I-10
s(S'1110211110'
p1959
I2
tp1960
I-10
s(S'1111000000'
p1961
I1
tp1962
F-104.72071639565574
s(S'0111010100'
p1963
I2
tp1964
F56.97153506747256
s(S'0111100010'
p1965
I1
tp1966
F169.8825984764897
s(S'0022210000'
p1967
I2
tp1968
I-10
s(S'1202000200'
p1969
I1
tp1970
I-10
s(S'0010111100'
p1971
I2
tp1972
F249.64871951671049
s(S'0222111110'
p1973
I2
tp1974
F-16.737698078386014
s(S'1100020000'
p1975
I0
tp1976
I-10
s(S'1001101100'
p1977
I0
tp1978
F115.51334096628126
s(S'0022001110'
p1979
I1
tp1980
I-10
s(S'0022222020'
p1981
I1
tp1982
F-1.68
s(S'1112222220'
p1983
I1
tp1984
F-12.1
s(S'0000222210'
p1985
I2
tp1986
F62.758257392859946
s(S'0000002020'
p1987
I0
tp1988
F0.0
s(S'1110011200'
p1989
I0
tp1990
F22.659229424725375
s(S'2222202010'
p1991
I1
tp1992
I-10
s(S'0002222200'
p1993
I0
tp1994
F211.0848630679526
s(S'2000221110'
p1995
I2
tp1996
F-20.023213741754933
s(S'0020002210'
p1997
I2
tp1998
I-10
s(S'0002210000'
p1999
I1
tp2000
F-12.1
s(S'0220000110'
p2001
I1
tp2002
F-13.296578996777107
s(S'0120011110'
p2003
I1
tp2004
I-10
s(S'2002021110'
p2005
I2
tp2006
I-10
s(S'1111002000'
p2007
I0
tp2008
I-10
s(S'0120202210'
p2009
I0
tp2010
I-10
s(S'1221111110'
p2011
I0
tp2012
I-15
s(S'0022222210'
p2013
I2
tp2014
F-10.189
s(S'0001210000'
p2015
I2
tp2016
I-10
s(S'1101101110'
p2017
I2
tp2018
F62.61237846152056
s(S'2222221010'
p2019
I0
tp2020
I-10
s(S'1100022000'
p2021
I0
tp2022
I-10
s(S'0211110110'
p2023
I0
tp2024
F26.932612909473594
s(S'1101000010'
p2025
I1
tp2026
I-10
s(S'0111122000'
p2027
I0
tp2028
F-3.0
s(S'1100000000'
p2029
I2
tp2030
F-6.073777597185775
s(S'0111011100'
p2031
I1
tp2032
F92.0644012449011
s(S'0222222220'
p2033
I0
tp2034
F-26.329956634428143
s(S'0000001000'
p2035
I2
tp2036
I-10
s(S'0112222220'
p2037
I2
tp2038
I-10
s(S'1122222000'
p2039
I2
tp2040
F-11.342894826235057
s(S'0000002220'
p2041
I2
tp2042
I-10
s(S'0000022220'
p2043
I1
tp2044
I-10
s(S'2000200000'
p2045
I2
tp2046
I-10
s(S'2220211110'
p2047
I0
tp2048
F610.386179487956
s(S'2000000110'
p2049
I1
tp2050
F1619.589348555813
s(S'0120111110'
p2051
I2
tp2052
I-10
s(S'1111202200'
p2053
I0
tp2054
I-10
s(S'2222101110'
p2055
I0
tp2056
I-10
s(S'0000220220'
p2057
I2
tp2058
I-10
s(S'2111101110'
p2059
I2
tp2060
F47.479537578732945
s(S'0111120110'
p2061
I0
tp2062
F0.029774756354863225
s(S'2220001110'
p2063
I0
tp2064
I-10
s(S'0112221110'
p2065
I1
tp2066
F-12.1
s(S'2221000110'
p2067
I2
tp2068
F-4.574711625494759
s(S'0112121110'
p2069
I2
tp2070
I-10
s(S'2220022110'
p2071
I2
tp2072
I-10
s(S'0000000010'
p2073
I2
tp2074
F226.75003802161967
s(S'0000001200'
p2075
I1
tp2076
F181.81882501931227
s(S'0111112000'
p2077
I1
tp2078
F3.5
s(S'0000202020'
p2079
I1
tp2080
I-10
s(S'0002000200'
p2081
I1
tp2082
F-44.328136724041116
s(S'0102111110'
p2083
I1
tp2084
I-10
s(S'0012000000'
p2085
I1
tp2086
I-10
s(S'1100200000'
p2087
I0
tp2088
F551.9113799677234
s(S'0222021110'
p2089
I0
tp2090
F-12.1
s(S'1000000100'
p2091
I1
tp2092
F-12.1
s(S'1222222220'
p2093
I1
tp2094
I-10
s(S'0000101000'
p2095
I2
tp2096
I-10
s(S'0100000010'
p2097
I2
tp2098
I-10
s(S'0020211110'
p2099
I1
tp2100
F-11.797177626690493
s(S'1112200210'
p2101
I2
tp2102
I0
s(S'2000002210'
p2103
I1
tp2104
I-10
s(S'0002022210'
p2105
I2
tp2106
I0
s(S'1111000100'
p2107
I1
tp2108
I-10
s(S'0020001110'
p2109
I0
tp2110
I-10
s(S'2200000000'
p2111
I2
tp2112
F-10.61723844
s(S'2111111010'
p2113
I0
tp2114
F81.87414588064716
s(S'1000110010'
p2115
I1
tp2116
I-10
s(S'2001110010'
p2117
I1
tp2118
I27
s(S'0122000110'
p2119
I0
tp2120
F-12.1
s(S'1111001010'
p2121
I2
tp2122
F21.493558527508906
s(S'1000002020'
p2123
I1
tp2124
I0
s(S'0001011110'
p2125
I1
tp2126
F75.45838266917924
s(S'2000000020'
p2127
I0
tp2128
F48.12723176627283
s(S'2220201110'
p2129
I0
tp2130
F-1.5999999999999996
s(S'1222100000'
p2131
I2
tp2132
I-10
s(S'0000020020'
p2133
I2
tp2134
I-10
s(S'1112022000'
p2135
I2
tp2136
I-10
s(S'0001111010'
p2137
I0
tp2138
F432.2986920930266
s(S'0011221110'
p2139
I0
tp2140
I-10
s(S'2200021210'
p2141
I0
tp2142
I-10
s(S'0000200110'
p2143
I1
tp2144
I-10
s(S'1000110100'
p2145
I2
tp2146
F547.7623082865053
s(S'0022202110'
p2147
I2
tp2148
I-10
s(S'0202222220'
p2149
I0
tp2150
I0
s(S'1110101000'
p2151
I2
tp2152
F640.1658923103085
s(S'1000011110'
p2153
I0
tp2154
F-20.331702633096718
s(S'0111112110'
p2155
I2
tp2156
I-10
s(S'0200020210'
p2157
I1
tp2158
F-10.546753774569385
s(S'0222222020'
p2159
I1
tp2160
F-24.951194334971547
s(S'0100001000'
p2161
I2
tp2162
F274.7197273743966
s(S'2201111100'
p2163
I0
tp2164
I-10
s(S'0202000000'
p2165
I0
tp2166
I-10
s(S'1100001110'
p2167
I2
tp2168
F314.175951400796
s(S'0000200020'
p2169
I1
tp2170
I-10
s(S'0120001110'
p2171
I0
tp2172
F-7.098884563724723
s(S'2000020210'
p2173
I0
tp2174
I-10
s(S'0101011100'
p2175
I2
tp2176
F376.08887534188534
s(S'1201111100'
p2177
I1
tp2178
I-10
s(S'0020111110'
p2179
I2
tp2180
F55.03413781018784
s(S'2222222000'
p2181
I2
tp2182
F71.80124604578279
s(S'2211110010'
p2183
I2
tp2184
F46.43579201172756
s(S'0122221110'
p2185
I2
tp2186
I-10
s(S'0220001110'
p2187
I0
tp2188
I-10
s(S'1110112000'
p2189
I1
tp2190
I-10
s(S'0000000000'
p2191
I1
tp2192
F-144.45196186846383
s(S'1100000100'
p2193
I0
tp2194
F445.8799670831078
s(S'0002220000'
p2195
I1
tp2196
F174.2876920246148
s(S'0001122220'
p2197
I0
tp2198
I-15
s(S'1122210000'
p2199
I2
tp2200
I-10
s(S'0200000020'
p2201
I2
tp2202
I-10
s(S'1110000000'
p2203
I0
tp2204
F110.71094667931021
s(S'2000022110'
p2205
I1
tp2206
F-11.003637081139043
s(S'0002222210'
p2207
I1
tp2208
F247.84941993591275
s(S'0001222220'
p2209
I2
tp2210
I-10
s(S'0101111110'
p2211
I1
tp2212
F322.33714931267446
s(S'0011100010'
p2213
I0
tp2214
F102.89809259852692
s(S'2111001100'
p2215
I0
tp2216
F63.196641717017506
s(S'1122121110'
p2217
I0
tp2218
I-10
s(S'1111000020'
p2219
I1
tp2220
I-10
s(S'0110001100'
p2221
I0
tp2222
F318.03551165734984
s(S'2002200000'
p2223
I0
tp2224
I-10
s(S'1111022000'
p2225
I0
tp2226
I-10
s(S'2222200000'
p2227
I2
tp2228
F-10.0
s(S'0221100000'
p2229
I0
tp2230
I-10
s(S'0011001110'
p2231
I0
tp2232
I-10
s(S'2222202210'
p2233
I0
tp2234
I-10
s(S'0122111110'
p2235
I2
tp2236
I-10
s(S'0122002120'
p2237
I2
tp2238
I0
s(S'1222000000'
p2239
I2
tp2240
F-59.47
s(S'2210000010'
p2241
I2
tp2242
I-10
s(S'0110100100'
p2243
I1
tp2244
F163.7170598960141
s(S'0000002000'
p2245
I0
tp2246
I-10
s(S'2000222110'
p2247
I1
tp2248
F-13.96433328446136
s(S'1000000200'
p2249
I2
tp2250
I-10
s(S'0100111000'
p2251
I2
tp2252
F112.74997094523049
s(S'2002222000'
p2253
I0
tp2254
F-3.0
s(S'0222202110'
p2255
I1
tp2256
I-10
s(S'0002002210'
p2257
I1
tp2258
I135
s(S'1120002000'
p2259
I2
tp2260
I-10
s(S'2222021110'
p2261
I0
tp2262
F-10.0
s(S'2002220000'
p2263
I0
tp2264
I-10
s(S'1000001000'
p2265
I2
tp2266
I-10
s(S'0021000010'
p2267
I0
tp2268
I-10
s(S'1111111100'
p2269
I1
tp2270
I-10
s(S'0220022110'
p2271
I0
tp2272
F31.168900510691365
s(S'0000100000'
p2273
I0
tp2274
F-10.303172041354895
s(S'2222222110'
p2275
I2
tp2276
I-10
s(S'0200002120'
p2277
I2
tp2278
F22.83
s(S'0001010010'
p2279
I1
tp2280
F464.5685980155434
s(S'1000001110'
p2281
I0
tp2282
F-17.913778389271048
s(S'1110000020'
p2283
I2
tp2284
I-10
s(S'2001111000'
p2285
I1
tp2286
F48.973158278726714
s(S'2222222000'
p2287
I0
tp2288
I-10
s(S'0111111100'
p2289
I2
tp2290
I-10
s(S'2020000020'
p2291
I2
tp2292
I-10
s(S'1000011100'
p2293
I1
tp2294
F172.94514954065184
s(S'1112111110'
p2295
I2
tp2296
F-15.3487
s(S'1220220000'
p2297
I2
tp2298
I-10
s(S'0000012110'
p2299
I0
tp2300
I-10
s(S'2110000000'
p2301
I0
tp2302
I-10
s(S'1202222000'
p2303
I0
tp2304
F27.38639321898092
s(S'0010020210'
p2305
I0
tp2306
I0
s(S'0222221110'
p2307
I0
tp2308
F1159.3336755209443
s(S'2222111110'
p2309
I0
tp2310
F-14.08011714345178
s(S'0010110000'
p2311
I1
tp2312
F791.5266007083636
s(S'1010110000'
p2313
I2
tp2314
F664.6838347128735
s(S'1001010000'
p2315
I1
tp2316
F443.29630853063685
s(S'0022100000'
p2317
I1
tp2318
I-10
s(S'0002200210'
p2319
I2
tp2320
I-10
s(S'2201000010'
p2321
I0
tp2322
I-10
s(S'0100021210'
p2323
I0
tp2324
I-10
s(S'0200002020'
p2325
I2
tp2326
F3.2273688621326717
s(S'2002222200'
p2327
I1
tp2328
I-10
s(S'0000011200'
p2329
I2
tp2330
I-10
s(S'2022211110'
p2331
I1
tp2332
F-11.811111587460369
s(S'2111000000'
p2333
I1
tp2334
I-10
s(S'0220020210'
p2335
I0
tp2336
I-10
s(S'0001100000'
p2337
I0
tp2338
F811.4034494100854
s(S'2000001110'
p2339
I0
tp2340
F-17.34325396897933
s(S'0002222000'
p2341
I1
tp2342
F98.54722125825776
s(S'0220211110'
p2343
I1
tp2344
I-10
s(S'1122211110'
p2345
I1
tp2346
F-10.0
s(S'2212111110'
p2347
I1
tp2348
I-10
s(S'0000100010'
p2349
I1
tp2350
F296.79654098046825
s(S'0011112110'
p2351
I0
tp2352
I-10
s(S'0000100100'
p2353
I0
tp2354
F875.318157174621
s(S'2000111110'
p2355
I0
tp2356
F235.19837140638737
s(S'0110111120'
p2357
I0
tp2358
I34
s(S'1102221000'
p2359
I0
tp2360
I-10
s(S'0000211110'
p2361
I2
tp2362
F-14.599
s(S'0112001110'
p2363
I0
tp2364
I-10
s(S'0002221110'
p2365
I1
tp2366
F-22.82701606982753
s(S'1011100000'
p2367
I2
tp2368
F615.6847999731579
s(S'1120001110'
p2369
I2
tp2370
F1513.7186452779974
s(S'1111122110'
p2371
I1
tp2372
I-10
s(S'0012200210'
p2373
I1
tp2374
I-10
s(S'2121111110'
p2375
I1
tp2376
I-5
s(S'1121000000'
p2377
I1
tp2378
I-10
s(S'1002210000'
p2379
I1
tp2380
I-10
s(S'0011110010'
p2381
I1
tp2382
F226.43520728412844
s(S'0022222220'
p2383
I0
tp2384
F-14.38657177
s(S'1111222000'
p2385
I0
tp2386
F-12.1
s(S'0200000010'
p2387
I2
tp2388
I-10
s(S'0000000100'
p2389
I1
tp2390
F351.230385318221
s(S'0010000110'
p2391
I0
tp2392
F1543.6506409688786
s(S'1011111110'
p2393
I2
tp2394
F49.452028789590145
s(S'2220000000'
p2395
I1
tp2396
F174.49991383161682
s(S'1200221110'
p2397
I1
tp2398
I-10
s(S'2111111100'
p2399
I1
tp2400
I-10
s(S'1111110000'
p2401
I1
tp2402
F28.592225692057227
s(S'0002222220'
p2403
I0
tp2404
F-16.8848179
s(S'2221000000'
p2405
I2
tp2406
F654.3944245969024
s(S'0111122010'
p2407
I0
tp2408
F0.0
s(S'1121122020'
p2409
I2
tp2410
I-10
s(S'0100011110'
p2411
I1
tp2412
F241.0601693442511
s(S'0000100200'
p2413
I0
tp2414
I2
s(S'0022000200'
p2415
I2
tp2416
I-10
s(S'1000010000'
p2417
I1
tp2418
F534.0863048689122
s(S'2221110000'
p2419
I2
tp2420
I-10
s(S'0010011110'
p2421
I2
tp2422
F-12.1
s(S'1222212110'
p2423
I2
tp2424
I-50
s(S'1010000000'
p2425
I2
tp2426
I-10
s(S'0002222000'
p2427
I2
tp2428
I-10
s(S'1000020000'
p2429
I2
tp2430
I-10
s(S'0020211110'
p2431
I2
tp2432
F28.02806193952764
s(S'0100000110'
p2433
I1
tp2434
F1212.726144053242
s(S'0011100000'
p2435
I1
tp2436
F693.9877876314251
s(S'0010000010'
p2437
I0
tp2438
I-10
s(S'0010100110'
p2439
I2
tp2440
F125.70009227104929
s(S'0000222200'
p2441
I2
tp2442
I0
s(S'1002000020'
p2443
I0
tp2444
I-10
s(S'0020221110'
p2445
I2
tp2446
I-10
s(S'0122202210'
p2447
I2
tp2448
I-10
s(S'0002222020'
p2449
I2
tp2450
F168.4538608340742
s(S'1002220000'
p2451
I1
tp2452
F19048.11992
s(S'1000110110'
p2453
I2
tp2454
I5
s(S'1100110000'
p2455
I1
tp2456
F329.10257222499297
s(S'0112202120'
p2457
I2
tp2458
F0.0
s(S'0111101120'
p2459
I2
tp2460
I0
s(S'0000222220'
p2461
I2
tp2462
F125.49674634552997
s(S'1122100000'
p2463
I2
tp2464
I-10
s(S'1001000000'
p2465
I2
tp2466
I-10
s(S'2000202110'
p2467
I2
tp2468
F-60.549692302696876
s(S'2220000100'
p2469
I1
tp2470
I-10
s(S'0011200000'
p2471
I1
tp2472
I-10
s(S'0011111110'
p2473
I1
tp2474
F-12.1
s(S'1112200000'
p2475
I0
tp2476
F43.180260857948056
s(S'0020000200'
p2477
I1
tp2478
F35.46606539253948
s(S'0022222200'
p2479
I2
tp2480
F-40.690863
s(S'1222222100'
p2481
I2
tp2482
I-10
s(S'1011110000'
p2483
I0
tp2484
F0.9308173844109209
s(S'1111112000'
p2485
I0
tp2486
F-3.57
s(S'1200111110'
p2487
I0
tp2488
F458.4197818766906
s(S'0000202000'
p2489
I1
tp2490
I0
s(S'0011001000'
p2491
I1
tp2492
F612.6569574127175
s(S'0011211110'
p2493
I1
tp2494
F-8.631100118459646
s(S'0000112110'
p2495
I2
tp2496
F-12.1
s(S'0111120000'
p2497
I2
tp2498
I0
s(S'0121111110'
p2499
I1
tp2500
F36.10500434037481
s(S'0000001010'
p2501
I2
tp2502
I-10
s(S'0221000000'
p2503
I0
tp2504
F-12.1
s(S'1102111100'
p2505
I1
tp2506
I-10
s(S'0022221110'
p2507
I2
tp2508
F104.07045907104256
s(S'0000010010'
p2509
I2
tp2510
F558.5796604385998
s(S'0200022110'
p2511
I1
tp2512
F21.368831922398567
s(S'0000001100'
p2513
I0
tp2514
F819.7803691445259
s(S'2222110000'
p2515
I1
tp2516
I-10
s(S'0210001110'
p2517
I0
tp2518
F4003.1528001521365
s(S'0220000110'
p2519
I0
tp2520
F755.5774528847302
s(S'1110110110'
p2521
I2
tp2522
F158.20591074630835
s(S'2222212110'
p2523
I2
tp2524
I-10
s(S'0000111010'
p2525
I0
tp2526
F443.45215788990106
s(S'1000002120'
p2527
I0
tp2528
I0
s(S'0020000010'
p2529
I0
tp2530
I-10
s(S'1220000000'
p2531
I0
tp2532
I-10
s(S'0011000010'
p2533
I1
tp2534
F-12.1
s(S'0101110000'
p2535
I1
tp2536
F1221.626427343802
s(S'0202111110'
p2537
I1
tp2538
F91.44426561507873
s(S'0020002020'
p2539
I1
tp2540
I-10
s(S'2002000000'
p2541
I0
tp2542
F-0.17411970884737293
s(S'1100000200'
p2543
I1
tp2544
I-10
s(S'0002002020'
p2545
I1
tp2546
F-3.414759925123819
s(S'1100012000'
p2547
I1
tp2548
F-3.2232225303640076
s(S'0002220210'
p2549
I2
tp2550
F45.111055058402684
s(S'2210001110'
p2551
I2
tp2552
F-12.1
s(S'1112020000'
p2553
I2
tp2554
F97.77244597958293
s(S'1110022000'
p2555
I1
tp2556
I-10
s(S'0012211110'
p2557
I1
tp2558
F-5.741665614519592
s(S'0021211110'
p2559
I2
tp2560
F12.930547373226892
s(S'0210011110'
p2561
I1
tp2562
F183.68748506503127
s(S'1111112200'
p2563
I2
tp2564
F-12.89387289450535
s(S'1111120220'
p2565
I1
tp2566
I0
s(S'0001000020'
p2567
I2
tp2568
I0
s(S'2222222100'
p2569
I1
tp2570
I-10
s(S'2222211110'
p2571
I1
tp2572
F47.21136690496992
s(S'2200000110'
p2573
I0
tp2574
F-17.262845799999997
s(S'1000011000'
p2575
I0
tp2576
F478.01012458878256
s(S'0001101100'
p2577
I2
tp2578
F172.19753809511693
s(S'1111110100'
p2579
I1
tp2580
F601.114810340949
s(S'0000202210'
p2581
I0
tp2582
F-0.35256594787900436
s(S'0022200210'
p2583
I1
tp2584
I0
s(S'1110011000'
p2585
I1
tp2586
F437.5813567411975
s(S'0000020210'
p2587
I2
tp2588
F-50.166310096316785
s(S'1100221000'
p2589
I1
tp2590
I-10
s(S'0000000020'
p2591
I2
tp2592
F153.5771848403
s(S'1000010100'
p2593
I1
tp2594
F525.4949188791161
s(S'0002220020'
p2595
I1
tp2596
I-10
s(S'0020022110'
p2597
I2
tp2598
I-10
s(S'1111000010'
p2599
I1
tp2600
F2429.9579050473717
s(S'2220000010'
p2601
I0
tp2602
F-12.027520125613613
s(S'1001110010'
p2603
I0
tp2604
I41
s(S'1110012000'
p2605
I1
tp2606
F-4.567282800585066
s(S'0110111110'
p2607
I0
tp2608
F215.48165897338154
s(S'1121111010'
p2609
I0
tp2610
I100
s(S'1211110010'
p2611
I1
tp2612
F53.09599111017252
s(S'0020002110'
p2613
I2
tp2614
I0
s(S'1101101000'
p2615
I0
tp2616
F181.7283429378502
s(S'0012111110'
p2617
I2
tp2618
F-12.1
s(S'0012002120'
p2619
I2
tp2620
F-3.0
s(S'0011000100'
p2621
I1
tp2622
F13.0
s(S'0001102110'
p2623
I2
tp2624
I-10
s(S'2221211110'
p2625
I0
tp2626
I-10
s(S'1110110010'
p2627
I2
tp2628
I10
s(S'0001200020'
p2629
I0
tp2630
F-12.08713320623399
s(S'0020002000'
p2631
I2
tp2632
F-0.778377182595877
s(S'0222222110'
p2633
I1
tp2634
F244.42503615504702
s(S'1222221210'
p2635
I2
tp2636
I-10
s(S'1120220000'
p2637
I1
tp2638
I-10
s(S'0220221110'
p2639
I0
tp2640
I-10
s(S'0111121110'
p2641
I1
tp2642
I-10
s(S'2222202110'
p2643
I0
tp2644
I-10
s(S'1100210000'
p2645
I2
tp2646
I-10
s(S'0111222110'
p2647
I1
tp2648
I-10
s(S'1102220000'
p2649
I0
tp2650
F-12.1
s(S'0200000200'
p2651
I0
tp2652
F23.08189113155118
s(S'1222222000'
p2653
I0
tp2654
F118.158778907516
s(S'2200002020'
p2655
I2
tp2656
F-63.62293682243084
s(S'1011111120'
p2657
I1
tp2658
F31.224492332399933
s(S'0222000010'
p2659
I1
tp2660
I-10
s(S'1222121110'
p2661
I0
tp2662
I-10
s(S'0001221110'
p2663
I1
tp2664
F-6.413679706172736
s(S'1111202000'
p2665
I2
tp2666
F20.12023583292899
s(S'2000021210'
p2667
I2
tp2668
I-10
s(S'0111110110'
p2669
I0
tp2670
F359.31801657327503
s(S'2222000010'
p2671
I2
tp2672
I490
s(S'0002221210'
p2673
I0
tp2674
I0
s(S'0222212110'
p2675
I0
tp2676
I-10
s(S'1200011110'
p2677
I2
tp2678
I-10
s(S'0011221210'
p2679
I2
tp2680
I-10
s(S'0222000000'
p2681
I1
tp2682
F-12.695419142537903
s(S'1101110010'
p2683
I1
tp2684
F90.86445037460916
s(S'0220000020'
p2685
I1
tp2686
I-10
s(S'0002011110'
p2687
I1
tp2688
I-10
s(S'0200022210'
p2689
I2
tp2690
I-10
s(S'1111220000'
p2691
I2
tp2692
F-14.506413222816247
s(S'1011111010'
p2693
I1
tp2694
F91.06672789188327
s(S'0200002200'
p2695
I1
tp2696
I-10
s(S'0000200220'
p2697
I0
tp2698
I-10
s(S'2221111000'
p2699
I0
tp2700
F-2.949470420494994
s(S'0020000210'
p2701
I1
tp2702
F10.5
s(S'1110211110'
p2703
I1
tp2704
I-10
s(S'0002202110'
p2705
I2
tp2706
I-10
s(S'0022210000'
p2707
I1
tp2708
F-10.0
s(S'1100020000'
p2709
I1
tp2710
I-10
s(S'0022001110'
p2711
I0
tp2712
I-10
s(S'0222221210'
p2713
I2
tp2714
F-11.526699999999998
s(S'1112222220'
p2715
I0
tp2716
I-10
s(S'0000222210'
p2717
I1
tp2718
I-10
s(S'0000122110'
p2719
I1
tp2720
I-10
s(S'1101110100'
p2721
I0
tp2722
F32.243648802339145
s(S'0000002020'
p2723
I1
tp2724
I-10
s(S'2002221110'
p2725
I1
tp2726
I-10
s(S'0122111100'
p2727
I1
tp2728
I4
s(S'0111010010'
p2729
I0
tp2730
F65.49715813221047
s(S'2000221110'
p2731
I1
tp2732
F-15.878886018111437
s(S'0002210000'
p2733
I0
tp2734
F-12.1
s(S'0220000110'
p2735
I2
tp2736
F-14.76657899677711
s(S'0120011110'
p2737
I0
tp2738
F1795.9288362392952
s(S'0001122110'
p2739
I2
tp2740
I-10
s(S'1111002000'
p2741
I1
tp2742
I-10
s(S'2000002220'
p2743
I2
tp2744
I0
s(S'0111111110'
p2745
I2
tp2746
F-12.1
s(S'1010000010'
p2747
I2
tp2748
I-10
s(S'0022222210'
p2749
I1
tp2750
F99.39045320658377
s(S'1000022000'
p2751
I1
tp2752
I-10
s(S'1100002000'
p2753
I0
tp2754
F9.322384549284351
s(S'1011111000'
p2755
I0
tp2756
F447.74023054287056
s(S'0111001110'
p2757
I0
tp2758
F94.53534234009666
s(S'0002000000'
p2759
I0
tp2760
F-12.800339752156844
s(S'2001000000'
p2761
I1
tp2762
I-10
s(S'0200021210'
p2763
I1
tp2764
I0
s(S'2200222110'
p2765
I0
tp2766
I-10
s(S'2000001100'
p2767
I0
tp2768
F-1.5999999999999996
s(S'0222222220'
p2769
I1
tp2770
F335.71821429321915
s(S'0011121110'
p2771
I1
tp2772
F-12.1
s(S'0000001000'
p2773
I1
tp2774
I-65
s(S'1100100000'
p2775
I2
tp2776
I-10
s(S'1200011110'
p2777
I1
tp2778
I-10
s(S'1212200000'
p2779
I2
tp2780
I-10
s(S'1111222220'
p2781
I2
tp2782
I0
s(S'2001000000'
p2783
I0
tp2784
I-10
s(S'0022222120'
p2785
I1
tp2786
F99.98441862941922
s(S'0220001110'
p2787
I2
tp2788
I-10
s(S'0012000210'
p2789
I1
tp2790
I0
s(S'2002000020'
p2791
I0
tp2792
I-10
s(S'1111202200'
p2793
I1
tp2794
F30.91399318008228
s(S'0122222110'
p2795
I2
tp2796
F-12.1
s(S'0200000220'
p2797
I1
tp2798
I0
s(S'2222222110'
p2799
I0
tp2800
F18.120002969463318
s(S'1201000000'
p2801
I2
tp2802
I-10
s(S'1101111000'
p2803
I0
tp2804
F326.42121163242757
s(S'0122211110'
p2805
I1
tp2806
I-10
s(S'0111120110'
p2807
I1
tp2808
I0
s(S'0112221110'
p2809
I0
tp2810
I-10
s(S'0011200020'
p2811
I2
tp2812
I0
s(S'0001111220'
p2813
I2
tp2814
I0
s(S'0012221120'
p2815
I1
tp2816
I-10
s(S'0221111110'
p2817
I0
tp2818
F-13.6
s(S'2211001110'
p2819
I2
tp2820
I-10
s(S'0000000010'
p2821
I1
tp2822
F-51.1885283411781
s(S'0002021110'
p2823
I2
tp2824
F-16.32281870795537
s(S'0000001200'
p2825
I0
tp2826
F-12.1
s(S'1010111100'
p2827
I0
tp2828
F91.61354687097733
s(S'0000202020'
p2829
I2
tp2830
F0.0
s(S'0110000010'
p2831
I2
tp2832
I-10
s(S'2202211110'
p2833
I2
tp2834
F12.869738192884025
s(S'0010010010'
p2835
I1
tp2836
F225.1299241904287
s(S'0012000000'
p2837
I0
tp2838
I-10
s(S'1100200000'
p2839
I1
tp2840
I-10
s(S'1222222220'
p2841
I0
tp2842
I-10
s(S'2220021110'
p2843
I1
tp2844
I-10
s(S'0220002200'
p2845
I0
tp2846
I20
s(S'0200002210'
p2847
I2
tp2848
F-5.1
s(S'0202221110'
p2849
I1
tp2850
I-10
s(S'2000002210'
p2851
I0
tp2852
I0
s(S'1000000110'
p2853
I2
tp2854
F-10.0
s(S'0010020220'
p2855
I0
tp2856
I2
s(S'0200000110'
p2857
I0
tp2858
F-13.57030403119114
s(S'0010011100'
p2859
I2
tp2860
F236.25835226450658
s(S'1111000100'
p2861
I0
tp2862
F-10.0
s(S'2101110010'
p2863
I1
tp2864
I9
s(S'1110001000'
p2865
I1
tp2866
F413.62269539869067
s(S'2221101110'
p2867
I1
tp2868
F-12.1
s(S'2202222000'
p2869
I2
tp2870
I-10
s(S'0222222120'
p2871
I2
tp2872
I0
s(S'0222211110'
p2873
I2
tp2874
I-15
s(S'1110100000'
p2875
I1
tp2876
I-10
s(S'2200222110'
p2877
I1
tp2878
I-10
s(S'0001011110'
p2879
I0
tp2880
I-10
s(S'2000000020'
p2881
I1
tp2882
F-67.0
s(S'2000212110'
p2883
I1
tp2884
F-14.011
s(S'1101001110'
p2885
I2
tp2886
F1052.4943756325115
s(S'2200021210'
p2887
I1
tp2888
I-10
s(S'0002111110'
p2889
I1
tp2890
F-6.69615433819207
s(S'1101110000'
p2891
I2
tp2892
F318.29556963106137
s(S'0000022210'
p2893
I1
tp2894
F-10.0
s(S'1022220000'
p2895
I2
tp2896
I-10
s(S'1101100110'
p2897
I2
tp2898
F347.43454763902275
s(S'0200020210'
p2899
I0
tp2900
F-25.52253873364095
s(S'0222222020'
p2901
I2
tp2902
F51.92807681730548
s(S'1122111110'
p2903
I1
tp2904
F6.284431313504897
s(S'2000202210'
p2905
I2
tp2906
I-10
s(S'0222200000'
p2907
I2
tp2908
F-71.011
s(S'1120000000'
p2909
I1
tp2910
F57.14965470524314
s(S'1011110010'
p2911
I0
tp2912
F35.386306154684256
s(S'0010001000'
p2913
I2
tp2914
F308.5513492817735
s(S'1200200000'
p2915
I2
tp2916
I-10
s(S'1100001110'
p2917
I1
tp2918
F-13.15873910636307
s(S'0120001110'
p2919
I1
tp2920
F-10.0
s(S'2020000010'
p2921
I2
tp2922
I-10
s(S'0002000010'
p2923
I1
tp2924
F565.360965322765
s(S'0102002120'
p2925
I2
tp2926
I-10
s(S'2200202110'
p2927
I2
tp2928
I-10
s(S'1122220000'
p2929
I2
tp2930
F-15.873489999999999
s(S'1112222000'
p2931
I0
tp2932
F972.5490202251349
s(S'0002220000'
p2933
I2
tp2934
I-10
s(S'0002222210'
p2935
I0
tp2936
I-10
s(S'0001222220'
p2937
I1
tp2938
F124.80484666948746
s(S'0101111110'
p2939
I0
tp2940
I-10
s(S'1122121110'
p2941
I1
tp2942
I-10
s(S'1111000020'
p2943
I2
tp2944
I-10
s(S'1020000010'
p2945
I2
tp2946
I0
s(S'0111110000'
p2947
I2
tp2948
I-10
s(S'1101110110'
p2949
I2
tp2950
F100.97387253229458
s(S'2220000110'
p2951
I2
tp2952
F500.57313654221014
s(S'0002220220'
p2953
I0
tp2954
F-3.0
s(S'0000002000'
p2955
I1
tp2956
F-12.1
s(S'2000222110'
p2957
I2
tp2958
F10.4266049712445
s(S'0001000010'
p2959
I0
tp2960
F485.043949409587
s(S'2002222000'
p2961
I1
tp2962
I-10
s(S'1211111110'
p2963
I1
tp2964
F30.20268284372173
s(S'0000000210'
p2965
I1
tp2966
F50.733347019477215
s(S'0021000010'
p2967
I1
tp2968
I-10
s(S'0220022110'
p2969
I1
tp2970
I-10
s(S'0010010000'
p2971
I2
tp2972
F711.6182380064455
s(S'2200100000'
p2973
I1
tp2974
I-10
s(S'1000000100'
p2975
I0
tp2976
I-10
s(S'1122222200'
p2977
I1
tp2978
I-10
s(S'0002020020'
p2979
I0
tp2980
I0
s(S'1222220000'
p2981
I2
tp2982
F2819.963211638578
s(S'1000001110'
p2983
I1
tp2984
F299.2507296215445
s(S'1110000020'
p2985
I1
tp2986
F294.0472333884339
s(S'0011000010'
p2987
I2
tp2988
I-10
s(S'0002222000'
p2989
I0
tp2990
I-10
s(S'2222222000'
p2991
I1
tp2992
I-10
s(S'0111111100'
p2993
I1
tp2994
F38.90895210192574
s(S'1100101010'
p2995
I2
tp2996
F511.39405209906124
s(S'0000011120'
p2997
I1
tp2998
I-15
s(S'2020211110'
p2999
I2
tp3000
I-10
s(S'2110000000'
p3001
I1
tp3002
F2297.3582938930194
s(S'0120000110'
p3003
I1
tp3004
F-12.47738682698546
s(S'0010020210'
p3005
I1
tp3006
I0
s(S'2000002000'
p3007
I1
tp3008
I-10
s(S'0100110000'
p3009
I0
tp3010
I0
s(S'2111100000'
p3011
I1
tp3012
I-10
s(S'1100011110'
p3013
I2
tp3014
F135.2081150919907
s(S'0000220210'
p3015
I2
tp3016
I-10
s(S'0022100000'
p3017
I0
tp3018
F2.5931330751784394
s(S'0020000020'
p3019
I2
tp3020
F5.446224842555142
s(S'1101000000'
p3021
I2
tp3022
I5
s(S'2022222000'
p3023
I0
tp3024
I-10
s(S'1120200020'
p3025
I2
tp3026
F53.44805524752722
s(S'0000021110'
p3027
I2
tp3028
F-60.684011623936534
s(S'2111000000'
p3029
I0
tp3030
I-10
s(S'0000100110'
p3031
I2
tp3032
F-12.1
s(S'0001100000'
p3033
I1
tp3034
F-2.0258910927252396
s(S'1111120000'
p3035
I2
tp3036
I0
s(S'0011111100'
p3037
I0
tp3038
F105.75259442172892
s(S'1100012000'
p3039
I2
tp3040
I-10
s(S'0222220000'
p3041
I0
tp3042
I-10
s(S'2222121110'
p3043
I0
tp3044
I-10
s(S'1001011000'
p3045
I1
tp3046
F579.5218191150517
s(S'0220211110'
p3047
I2
tp3048
F16.5877233808718
s(S'2022200000'
p3049
I0
tp3050
I-10
s(S'1220100000'
p3051
I1
tp3052
I-10
s(S'1101000110'
p3053
I1
tp3054
F22.721626790989475
s(S'2212111110'
p3055
I2
tp3056
I-10
s(S'2000200010'
p3057
I0
tp3058
I-10
s(S'0011112110'
p3059
I1
tp3060
I-10
s(S'1122002000'
p3061
I0
tp3062
I-10
s(S'2000000200'
p3063
I2
tp3064
F-1.4997291029406032
s(S'0022021110'
p3065
I2
tp3066
F-12.1
s(S'2200022110'
p3067
I2
tp3068
F3.1387936678980166
s(S'2100000010'
p3069
I1
tp3070
F8.303199834170853
s(S'0111111010'
p3071
I2
tp3072
F69.81188388668006
s(S'0001002210'
p3073
I2
tp3074
I-10
s(S'0200202110'
p3075
I0
tp3076
F-0.3868164002030121
s(S'0002221110'
p3077
I0
tp3078
F-44.21956150006902
s(S'2222222020'
p3079
I2
tp3080
F0.0
s(S'0011221110'
p3081
I2
tp3082
I-10
s(S'0012200210'
p3083
I2
tp3084
I-10
s(S'2000001010'
p3085
I1
tp3086
I-10
s(S'2022220000'
p3087
I0
tp3088
F-12.1
s(S'1221211110'
p3089
I0
tp3090
F-6.707585271611242
s(S'0012212210'
p3091
I1
tp3092
I0
s(S'0111110100'
p3093
I0
tp3094
F487.4665257937838
s(S'2220001110'
p3095
I1
tp3096
I-10
s(S'0022222220'
p3097
I1
tp3098
F-14.61811
s(S'2100001110'
p3099
I0
tp3100
F-20.115505729318336
s(S'1111222000'
p3101
I1
tp3102
I-10
s(S'2200202110'
p3103
I1
tp3104
F9.852943800629346
s(S'0000000110'
p3105
I2
tp3106
F-76.68539696813524
s(S'0000000100'
p3107
I0
tp3108
I-10
s(S'1222111110'
p3109
I0
tp3110
I-10
s(S'2220000000'
p3111
I2
tp3112
I-10
s(S'0001200010'
p3113
I2
tp3114
I-10
s(S'0001101000'
p3115
I0
tp3116
F790.751848908314
s(S'1111110000'
p3117
I2
tp3118
F-15.036057125740859
s(S'0002222220'
p3119
I1
tp3120
F-15.668452819761608
s(S'0111001120'
p3121
I2
tp3122
F19.640791366782835
s(S'2221000000'
p3123
I1
tp3124
F-12.942309999999999
s(S'1110011100'
p3125
I2
tp3126
F1164.1014073361644
s(S'2222220220'
p3127
I0
tp3128
I-10
s(S'1111001110'
p3129
I2
tp3130
F106.68688620996676
s(S'2222211100'
p3131
I1
tp3132
I-10
s(S'0100011110'
p3133
I0
tp3134
I-10
s(S'0020022210'
p3135
I1
tp3136
I-10
s(S'0002022110'
p3137
I0
tp3138
F28.658535111264726
s(S'1222221110'
p3139
I2
tp3140
F-12.1
s(S'1000010000'
p3141
I2
tp3142
I-10
s(S'2222222220'
p3143
I0
tp3144
F-12.1
s(S'1000211000'
p3145
I2
tp3146
I-10
s(S'0010011110'
p3147
I1
tp3148
F285.7108829840925
s(S'1102211110'
p3149
I0
tp3150
I-10
s(S'0222221110'
p3151
I2
tp3152
F-14.011
s(S'0000011110'
p3153
I2
tp3154
F39.12017339054199
s(S'1111100000'
p3155
I2
tp3156
F-20.68061119017929
s(S'2202111110'
p3157
I1
tp3158
I-10
s(S'0110100000'
p3159
I0
tp3160
F752.954729798604
s(S'0100000110'
p3161
I0
tp3162
I-10
s(S'1010011110'
p3163
I2
tp3164
F217.0433452884886
s(S'0010000010'
p3165
I1
tp3166
I-10
s(S'1120011110'
p3167
I0
tp3168
I-10
s(S'1212000000'
p3169
I1
tp3170
I-10
s(S'2222220000'
p3171
I2
tp3172
I-10
s(S'2111111000'
p3173
I1
tp3174
F24.247080038829125
s(S'0012222110'
p3175
I2
tp3176
F35.02728502381213
s(S'1000002000'
p3177
I1
tp3178
I-10
s(S'2211111110'
p3179
I2
tp3180
F14.34745900161584
s(S'0020221110'
p3181
I1
tp3182
I-10
s(S'0001111100'
p3183
I2
tp3184
F120.23265581784108
s(S'2202221000'
p3185
I1
tp3186
I-10
s(S'0111120000'
p3187
I0
tp3188
F7.301213356414762
s(S'0000022000'
p3189
I2
tp3190
F-12.1
s(S'0022221110'
p3191
I0
tp3192
F-11.5
s(S'1002211110'
p3193
I0
tp3194
I-10
s(S'0112022110'
p3195
I0
tp3196
I-10
s(S'2001111100'
p3197
I0
tp3198
F73.52760085400517
s(S'0000100020'
p3199
I1
tp3200
I-10
s(S'2220000100'
p3201
I0
tp3202
I-10
s(S'0001100000'
p3203
I2
tp3204
F-10.0
s(S'0011111110'
p3205
I0
tp3206
F33.37060863902124
s(S'0001000200'
p3207
I1
tp3208
I-5
s(S'1202000000'
p3209
I0
tp3210
I-10
s(S'0001220000'
p3211
I2
tp3212
I-10
s(S'0111010110'
p3213
I2
tp3214
F46.48042620218439
s(S'1200111110'
p3215
I1
tp3216
I-10
s(S'1102100000'
p3217
I2
tp3218
I-10
s(S'1110002000'
p3219
I2
tp3220
F-12.1
s(S'0110010010'
p3221
I0
tp3222
F525.3671157184915
s(S'0001021210'
p3223
I2
tp3224
I0
s(S'0100010010'
p3225
I2
tp3226
I502
s(S'0000121110'
p3227
I0
tp3228
F-11.969661983071502
s(S'0111111120'
p3229
I0
tp3230
F26.76207864394697
s(S'1001011100'
p3231
I1
tp3232
F100.64757805633877
s(S'0101000000'
p3233
I0
tp3234
I-10
s(S'0000001100'
p3235
I1
tp3236
F-1.915
s(S'1000000010'
p3237
I0
tp3238
F-12.1
s(S'2222110000'
p3239
I2
tp3240
I-10
s(S'0210001110'
p3241
I1
tp3242
F-12.1
s(S'2000022110'
p3243
I2
tp3244
F-10.777313334827374
s(S'0112002120'
p3245
I1
tp3246
I0
s(S'0200222220'
p3247
I0
tp3248
I0
s(S'0111010000'
p3249
I2
tp3250
F284.7309010847691
s(S'0000020000'
p3251
I0
tp3252
F-41.25735953482382
s(S'1000101110'
p3253
I0
tp3254
I-10
s(S'0000111210'
p3255
I0
tp3256
I-10
s(S'0002211110'
p3257
I2
tp3258
F-59.443281390882866
s(S'0011000010'
p3259
I0
tp3260
F3035.5218163995996
s(S'0202111110'
p3261
I0
tp3262
I-10
s(S'1111111110'
p3263
I2
tp3264
F-7.459636214081256
s(S'0020002020'
p3265
I2
tp3266
F3.4240544391465697
s(S'2002000000'
p3267
I1
tp3268
F-12.1
s(S'0002002020'
p3269
I2
tp3270
I-10
s(S'1100012000'
p3271
I0
tp3272
I-10
s(S'0002220210'
p3273
I1
tp3274
I0
s(S'0110111110'
p3275
I1
tp3276
F-12.014366313627663
s(S'1110022000'
p3277
I0
tp3278
F-10.0
s(S'0110011000'
p3279
I0
tp3280
F340.88042834069336
s(S'0012211110'
p3281
I0
tp3282
F-12.1
s(S'1111120220'
p3283
I0
tp3284
I0
s(S'1111220220'
p3285
I0
tp3286
I-10
s(S'2222222100'
p3287
I0
tp3288
I-10
s(S'2222211110'
p3289
I2
tp3290
F-16.967316999999998
s(S'2200000110'
p3291
I1
tp3292
F-17.52091898824016
s(S'1000011110'
p3293
I2
tp3294
F265.7293753912069
s(S'0111112010'
p3295
I0
tp3296
F4.53173949522
s(S'2110000020'
p3297
I1
tp3298
I-10
s(S'1111102200'
p3299
I2
tp3300
I-10
s(S'1001111110'
p3301
I2
tp3302
F128.42307031528827
s(S'0000020210'
p3303
I1
tp3304
F-9.41472292107271
s(S'1100221000'
p3305
I0
tp3306
I-10
s(S'0020222210'
p3307
I2
tp3308
I-10
s(S'0020200000'
p3309
I2
tp3310
I-10
s(S'0000111210'
p3311
I1
tp3312
I-10
s(S'1111111220'
p3313
I1
tp3314
F0.0
s(S'1001100000'
p3315
I2
tp3316
F672.225527691438
s(S'1100000010'
p3317
I1
tp3318
F1922.1381210575312
s(S'1110012000'
p3319
I2
tp3320
I-10
s(S'1200022110'
p3321
I2
tp3322
F-12.1
s(S'0110000110'
p3323
I0
tp3324
F-14.011
s(S'0222000000'
p3325
I2
tp3326
F-11.333685982103155
s(S'0001002120'
p3327
I1
tp3328
I-10
s(S'0112000110'
p3329
I0
tp3330
F1143.174840299014
s(S'2020000200'
p3331
I2
tp3332
I-10
s(S'0200002220'
p3333
I2
tp3334
F0.0
s(S'0122222220'
p3335
I2
tp3336
I-10
s(S'2200002120'
p3337
I1
tp3338
I-10
s(S'1200222110'
p3339
I2
tp3340
I-10
s(S'0222222110'
p3341
I2
tp3342
F-12.1
s(S'1222221210'
p3343
I1
tp3344
F81.14620320900956
s(S'0021110000'
p3345
I0
tp3346
I-10
s(S'0111112200'
p3347
I0
tp3348
F0.46960649579620695
s(S'1122222110'
p3349
I2
tp3350
I-10
s(S'0221000010'
p3351
I1
tp3352
I-10
s(S'1112002000'
p3353
I1
tp3354
I-10
s(S'0122002210'
p3355
I0
tp3356
I-10
s(S'0121111100'
p3357
I2
tp3358
I9
s(S'1102220000'
p3359
I1
tp3360
I-10
s(S'0200000200'
p3361
I1
tp3362
F-28.011
s(S'1101011110'
p3363
I1
tp3364
I-10
s(S'2111100110'
p3365
I1
tp3366
F84.08633481217998
s(S'2111011100'
p3367
I2
tp3368
F63.00140033841157
s(S'2200001110'
p3369
I1
tp3370
F-20.92733569291631
s(S'2222000010'
p3371
I1
tp3372
I-10
s(S'2221100110'
p3373
I1
tp3374
I-10
s(S'1110221110'
p3375
I0
tp3376
I-10
s(S'1200001110'
p3377
I0
tp3378
F7045.71690333019
s(S'0100000000'
p3379
I1
tp3380
F569.1853394395137
s(S'0001200000'
p3381
I1
tp3382
F243.56036741563685
s(S'0000120000'
p3383
I2
tp3384
I-10
s(S'0101111100'
p3385
I0
tp3386
F213.7550749889506
s(S'0200022210'
p3387
I1
tp3388
F2.4601253266639236
s(S'0111112220'
p3389
I2
tp3390
F0.14088194873886206
s(S'0012002120'
p3391
I1
tp3392
I0
s(S'0022222000'
p3393
I0
tp3394
F-10.85070336616683
s(S'0000200220'
p3395
I1
tp3396
F-0.05692627065278477
s(S'0002121110'
p3397
I2
tp3398
I-10
s(S'1110211110'
p3399
I0
tp3400
I-10
s(S'0222000220'
p3401
I0
tp3402
I-10
s(S'0022210000'
p3403
I0
tp3404
F-12.541
s(S'1100001100'
p3405
I2
tp3406
F159.23341617860748
s(S'1001111100'
p3407
I0
tp3408
F204.07233740030657
s(S'1010011100'
p3409
I1
tp3410
F68.19097057517513
s(S'2222222210'
p3411
I1
tp3412
F56.46356671716194
s(S'0000222210'
p3413
I0
tp3414
I-10
s(S'0000122110'
p3415
I0
tp3416
I-10
s(S'1202222220'
p3417
I2
tp3418
I0
s(S'2002221110'
p3419
I0
tp3420
I-10
s(S'0012210000'
p3421
I0
tp3422
I-10
s(S'2000221110'
p3423
I0
tp3424
F-17.211657771444568
s(S'0220000000'
p3425
I2
tp3426
F648.8843388047087
s(S'1222021210'
p3427
I0
tp3428
I-10
s(S'1111120200'
p3429
I0
tp3430
I-10
s(S'1010111110'
p3431
I2
tp3432
I-10
s(S'1111002000'
p3433
I2
tp3434
F316.54135677613715
s(S'0120202210'
p3435
I2
tp3436
I-10
s(S'1221111110'
p3437
I2
tp3438
F32.275249580311254
s(S'0001021110'
p3439
I0
tp3440
I-10
s(S'0000222020'
p3441
I2
tp3442
F-3.0
s(S'1010000010'
p3443
I1
tp3444
I-10
s(S'0002200200'
p3445
I0
tp3446
I0
s(S'0022222210'
p3447
I0
tp3448
F-12.1
s(S'0000202010'
p3449
I2
tp3450
I-10
s(S'2222111100'
p3451
I1
tp3452
F139.39621057073333
s(S'2111110110'
p3453
I2
tp3454
F56.9740572129151
s(S'1011111000'
p3455
I1
tp3456
I0
s(S'0000002210'
p3457
I2
tp3458
F-11.2033
s(S'1122222200'
p3459
I0
tp3460
F124.32387880074545
s(S'1100022000'
p3461
I2
tp3462
I-10
s(S'0002000020'
p3463
I2
tp3464
F46.02079161459261
s(S'1110100010'
p3465
I2
tp3466
I5
s(S'0002000000'
p3467
I1
tp3468
F155.3769843962414
s(S'2000001100'
p3469
I1
tp3470
I-5
s(S'2111111100'
p3471
I0
tp3472
F24.602453992922552
s(S'0000222220'
p3473
I1
tp3474
F-14.011
s(S'1102000000'
p3475
I1
tp3476
I-10
s(S'1122200000'
p3477
I2
tp3478
F125.87578206827354
s(S'1120111110'
p3479
I2
tp3480
I-10
s(S'0000001000'
p3481
I0
tp3482
F746.9764761068399
s(S'0000211110'
p3483
I0
tp3484
F-15.657399999999999
s(S'0000021120'
p3485
I2
tp3486
I-10
s(S'0200011110'
p3487
I0
tp3488
F-12.1
s(S'2000002020'
p3489
I1
tp3490
I-200
s(S'1122222000'
p3491
I0
tp3492
F-15.575030899360781
s(S'1112222200'
p3493
I0
tp3494
I-10
s(S'0101110110'
p3495
I0
tp3496
F96.56479387454343
s(S'2000200000'
p3497
I0
tp3498
I-10
s(S'0000022110'
p3499
I0
tp3500
F-48.9350961061494
s(S'0111011200'
p3501
I1
tp3502
F11.850000000000001
s(S'0001120000'
p3503
I0
tp3504
I0
s(S'0120111110'
p3505
I0
tp3506
F11.05525567855496
s(S'0010110010'
p3507
I0
tp3508
F302.54515632594746
s(S'0000111100'
p3509
I2
tp3510
F11.919262036883623
s(S'2200022210'
p3511
I1
tp3512
I-10
s(S'1212021000'
p3513
I0
tp3514
I-10
s(S'1120222220'
p3515
I0
tp3516
F124.36201440193733
s(S'0100100100'
p3517
I2
tp3518
F458.2734937824815
s(S'2101111000'
p3519
I0
tp3520
I15
s(S'0001121110'
p3521
I1
tp3522
F-11.204004047084698
s(S'1000111100'
p3523
I2
tp3524
F154.73049177847193
s(S'0022000100'
p3525
I2
tp3526
I-10
s(S'2222101110'
p3527
I2
tp3528
I-10
s(S'0001121210'
p3529
I0
tp3530
I-10
s(S'0200020020'
p3531
I0
tp3532
I-10
s(S'0022000010'
p3533
I1
tp3534
I-10
s(S'1112200000'
p3535
I2
tp3536
F-12.1
s(S'0110101100'
p3537
I0
tp3538
I43
s(S'0111111020'
p3539
I2
tp3540
I2
s(S'2100000210'
p3541
I1
tp3542
I625
s(S'0000002010'
p3543
I1
tp3544
I-10
s(S'0221111110'
p3545
I1
tp3546
F-13.6
s(S'2211001110'
p3547
I1
tp3548
F-0.20000000000000018
s(S'2202221110'
p3549
I0
tp3550
I-10
s(S'0000000010'
p3551
I0
tp3552
F-46.80892426115133
s(S'1220022110'
p3553
I1
tp3554
I-10
s(S'1120000200'
p3555
I0
tp3556
I-10
s(S'0222021110'
p3557
I2
tp3558
F24.678140621915688
s(S'1122222210'
p3559
I1
tp3560
I-10
s(S'0000101000'
p3561
I0
tp3562
F713.9571245952553
s(S'2211100110'
p3563
I0
tp3564
F75.45822396976223
s(S'0122202110'
p3565
I2
tp3566
I-10
s(S'0200000110'
p3567
I1
tp3568
F2455.100947394774
s(S'1201100000'
p3569
I2
tp3570
I-10
s(S'0000020110'
p3571
I0
tp3572
I-10
s(S'1101101100'
p3573
I0
tp3574
F21.318720817843868
s(S'0100221110'
p3575
I0
tp3576
I-10
s(S'1120020000'
p3577
I2
tp3578
I-10
s(S'2221101110'
p3579
I0
tp3580
F-12.1
s(S'0222222120'
p3581
I1
tp3582
F207.78638865303765
s(S'2211101110'
p3583
I1
tp3584
F39.64111743300588
s(S'1110100000'
p3585
I2
tp3586
F726.9275818701756
s(S'1100011100'
p3587
I0
tp3588
F203.55195475129358
s(S'1222000000'
p3589
I0
tp3590
F-20.92955360678257
s(S'0111211110'
p3591
I0
tp3592
F-12.1
s(S'0020202110'
p3593
I2
tp3594
I-10
s(S'1000002110'
p3595
I1
tp3596
I-10
s(S'2201000000'
p3597
I1
tp3598
F81.12775227785188
s(S'2221111010'
p3599
I0
tp3600
F35.47265542755177
s(S'2000212110'
p3601
I0
tp3602
F-13.235927415114514
s(S'0000020020'
p3603
I0
tp3604
F59.55735508387995
s(S'1112022000'
p3605
I0
tp3606
I-10
s(S'0000120010'
p3607
I0
tp3608
F-12.1
s(S'1111001100'
p3609
I2
tp3610
F125.40590639132022
s(S'0000200000'
p3611
I0
tp3612
I-10
s(S'0002111110'
p3613
I0
tp3614
F-12.1
s(S'0001100010'
p3615
I1
tp3616
F799.7276544010889
s(S'2212000000'
p3617
I2
tp3618
I-10
s(S'1110112000'
p3619
I0
tp3620
I-10
s(S'2222000210'
p3621
I0
tp3622
I-10
s(S'1022220000'
p3623
I1
tp3624
F-10.0
s(S'1111022000'
p3625
I1
tp3626
I-5
s(S'0201111110'
p3627
I2
tp3628
F52.49415007316862
s(S'0111000000'
p3629
I2
tp3630
F-5.1
s(S'0001112110'
p3631
I1
tp3632
I-10
s(S'2201111100'
p3633
I2
tp3634
I-10
s(S'0020000110'
p3635
I2
tp3636
F378.472122356791
s(S'0112211110'
p3637
I0
tp3638
I-10
s(S'1100002000'
p3639
I1
tp3640
I-10
s(S'2200221110'
p3641
I1
tp3642
I-10
s(S'1200200000'
p3643
I1
tp3644
I-10
s(S'1100001110'
p3645
I0
tp3646
I-10
s(S'2222111000'
p3647
I1
tp3648
I-10
s(S'0120001110'
p3649
I2
tp3650
F671.6195167174224
s(S'2000020210'
p3651
I2
tp3652
F10.725256361610706
s(S'0122221110'
p3653
I0
tp3654
F-10.0
s(S'2000020020'
p3655
I1
tp3656
I-10
s(S'0111221110'
p3657
I1
tp3658
I-10
s(S'1100100100'
p3659
I1
tp3660
F435.98075446665246
s(S'0100010000'
p3661
I2
tp3662
I-10
s(S'2122000210'
p3663
I1
tp3664
I-10
s(S'0001122220'
p3665
I2
tp3666
I0
s(S'0202111100'
p3667
I2
tp3668
I-10
s(S'2010011110'
p3669
I0
tp3670
I7
s(S'0200000020'
p3671
I0
tp3672
F88.73788118455275
s(S'1110000000'
p3673
I2
tp3674
F-12.872187224863707
s(S'0001222220'
p3675
I0
tp3676
F-10.0
s(S'0022000110'
p3677
I0
tp3678
I-10
s(S'0102221110'
p3679
I0
tp3680
I-10
s(S'2221100010'
p3681
I2
tp3682
I-10
s(S'1122121110'
p3683
I2
tp3684
I-10
s(S'2200022020'
p3685
I0
tp3686
I-10
s(S'2002200000'
p3687
I2
tp3688
I-10
s(S'2000011100'
p3689
I1
tp3690
F52.28834294510732
s(S'2002221110'
p3691
I2
tp3692
I-10
s(S'2222202210'
p3693
I2
tp3694
I-10
s(S'2222200200'
p3695
I2
tp3696
I-10
s(S'2210000010'
p3697
I0
tp3698
F1508.5299791524064
s(S'1112200220'
p3699
I2
tp3700
I-10
s(S'0000002000'
p3701
I2
tp3702
F80.01336231125245
s(S'0100111000'
p3703
I0
tp3704
I-10
s(S'0000111210'
p3705
I2
tp3706
I-10
s(S'0012212110'
p3707
I0
tp3708
I-10
s(S'0000000210'
p3709
I0
tp3710
I-10
s(S'0002000020'
p3711
I1
tp3712
I-10
s(S'1001000010'
p3713
I1
tp3714
I-10
s(S'0220022110'
p3715
I2
tp3716
I-10
s(S'2000000010'
p3717
I1
tp3718
F825.8001724383882
s(S'1120222200'
p3719
I1
tp3720
F-12.1
s(S'2200111110'
p3721
I2
tp3722
I-10
s(S'1122222200'
p3723
I2
tp3724
I-10
s(S'1111122110'
p3725
I0
tp3726
I-10
s(S'1111101000'
p3727
I2
tp3728
I-10
s(S'1000001110'
p3729
I2
tp3730
F-115.213518308414
s(S'1122010000'
p3731
I2
tp3732
I-10
s(S'1110000020'
p3733
I0
tp3734
I-10
s(S'1010111000'
p3735
I1
tp3736
F89.69822302212648
s(S'1110000110'
p3737
I2
tp3738
I-10
s(S'1110011010'
p3739
I0
tp3740
F102.19549408472388
s(S'1120021210'
p3741
I2
tp3742
F-10.0
s(S'0111111100'
p3743
I0
tp3744
I-10
s(S'0000011120'
p3745
I0
tp3746
I-10
s(S'1010211110'
p3747
I1
tp3748
I-10
s(S'1112111110'
p3749
I0
tp3750
F18.725886209745376
s(S'0000012110'
p3751
I2
tp3752
F-7.0
s(S'2211000000'
p3753
I0
tp3754
I-10
s(S'2021111010'
p3755
I1
tp3756
I11
s(S'1202222000'
p3757
I2
tp3758
F-12.1
s(S'2200011110'
p3759
I2
tp3760
F776.588008404794
s(S'1111122000'
p3761
I2
tp3762
F-14.011
s(S'1220200000'
p3763
I0
tp3764
F-10.89480968717356
s(S'2222221000'
p3765
I2
tp3766
F128.85388999999998
s(S'0122222210'
p3767
I0
tp3768
F-10.0
s(S'2202000020'
p3769
I0
tp3770
I-10
s(S'1110001100'
p3771
I0
tp3772
F1843.577388669276
s(S'0120000110'
p3773
I0
tp3774
F1542.3711999299835
s(S'1101000000'
p3775
I1
tp3776
I-10
s(S'2222020110'
p3777
I2
tp3778
I-10
s(S'0022002000'
p3779
I1
tp3780
I0
s(S'0000021110'
p3781
I1
tp3782
F-13.984326208547682
s(S'0110000000'
p3783
I0
tp3784
F588.8012129167087
s(S'0001010110'
p3785
I1
tp3786
F101.25395518705031
s(S'0110010000'
p3787
I1
tp3788
F394.7711566441518
s(S'0000200200'
p3789
I1
tp3790
I-10
s(S'1222212110'
p3791
I0
tp3792
F129.81730915155924
s(S'0011111100'
p3793
I1
tp3794
F-0.20000000000000018
s(S'2201111110'
p3795
I0
tp3796
F11.511605295691076
s(S'0002022110'
p3797
I1
tp3798
I-10
s(S'1002100000'
p3799
I0
tp3800
I-10
s(S'0222220000'
p3801
I1
tp3802
F-24.539438475208115
s(S'2222121110'
p3803
I1
tp3804
I-10
s(S'2200202110'
p3805
I0
tp3806
I-10
s(S'1222211110'
p3807
I2
tp3808
F-17.95467337
s(S'2222022110'
p3809
I1
tp3810
I-10
s(S'1110010000'
p3811
I0
tp3812
F745.4744553960684
s(S'0002202020'
p3813
I2
tp3814
I-10
s(S'0020020210'
p3815
I1
tp3816
F64.14457700289049
s(S'0110110110'
p3817
I1
tp3818
F84.1763110020469
s(S'0022021110'
p3819
I1
tp3820
F40.889370646034656
s(S'0022220210'
p3821
I2
tp3822
I-10
s(S'0020222220'
p3823
I0
tp3824
I0
s(S'1002111110'
p3825
I0
tp3826
I-10
s(S'0200202110'
p3827
I1
tp3828
F-14.931378761104472
s(S'1011011110'
p3829
I1
tp3830
F71.67599391324067
s(S'1001011110'
p3831
I0
tp3832
F162.46491159575248
s(S'2000001010'
p3833
I2
tp3834
I-10
s(S'0000200010'
p3835
I1
tp3836
I-10
s(S'2022220000'
p3837
I1
tp3838
F79.27986698351114
s(S'1001110000'
p3839
I0
tp3840
F403.3121850230606
s(S'1221211110'
p3841
I1
tp3842
I-10
s(S'0022222220'
p3843
I2
tp3844
F262.821487432843
s(S'2100001110'
p3845
I1
tp3846
F-22.592494358535035
s(S'1111222000'
p3847
I2
tp3848
F-11.06149545691705
s(S'1101100010'
p3849
I1
tp3850
I6
s(S'0010000110'
p3851
I2
tp3852
F-12.849699999999999
s(S'1000011110'
p3853
I1
tp3854
F-21.308696042583815
s(S'1222111110'
p3855
I1
tp3856
I-10
s(S'2221000000'
p3857
I0
tp3858
F-12.1
s(S'1110111110'
p3859
I1
tp3860
F122.5087403884712
s(S'0000101110'
p3861
I0
tp3862
F-14.011
s(S'0012021210'
p3863
I0
tp3864
I-10
s(S'2222220220'
p3865
I1
tp3866
I-10
s(S'0110001000'
p3867
I0
tp3868
I40
s(S'0000202220'
p3869
I2
tp3870
I0
s(S'2222211100'
p3871
I0
tp3872
I-10
s(S'2001110110'
p3873
I1
tp3874
F28.772850266183713
s(S'0020022210'
p3875
I0
tp3876
F36.45899999999999
s(S'0011110110'
p3877
I1
tp3878
F165.01183915357808
s(S'0000221110'
p3879
I2
tp3880
F-66.55592589572197
s(S'0002200000'
p3881
I2
tp3882
F-12.1
s(S'2222222220'
p3883
I1
tp3884
I-10
s(S'1000211000'
p3885
I1
tp3886
I-10
s(S'0010011110'
p3887
I0
tp3888
F-12.1
s(S'1102211110'
p3889
I1
tp3890
I-10
s(S'0002022020'
p3891
I0
tp3892
I-10
s(S'0111100000'
p3893
I1
tp3894
F410.2137249324863
s(S'0020002210'
p3895
I1
tp3896
F-3.2184760565229604
s(S'1111100000'
p3897
I1
tp3898
F56.96628028807921
s(S'2202111110'
p3899
I0
tp3900
F348.14665012108844
s(S'0021111110'
p3901
I2
tp3902
F21.19508707767328
s(S'0011100110'
p3903
I2
tp3904
F80.90091515315609
s(S'1120011110'
p3905
I1
tp3906
F1019.1712895918447
s(S'1100101000'
p3907
I1
tp3908
F80.09369693799712
s(S'2112200000'
p3909
I0
tp3910
I-10
s(S'1100000210'
p3911
I0
tp3912
I-10
s(S'1010111010'
p3913
I2
tp3914
I6
s(S'2222000000'
p3915
I2
tp3916
F-14.090862999999999
s(S'1000002000'
p3917
I0
tp3918
F85.13147260008617
s(S'0100011000'
p3919
I1
tp3920
F386.3130742940481
s(S'0020221110'
p3921
I0
tp3922
I-10
s(S'0122202210'
p3923
I0
tp3924
I-10
s(S'0020000220'
p3925
I0
tp3926
I0
s(S'1100010010'
p3927
I1
tp3928
I-10
s(S'2222200200'
p3929
I0
tp3930
I-10
s(S'0000101110'
p3931
I1
tp3932
F-11.469999999999999
s(S'2211111010'
p3933
I2
tp3934
F50.70256310771327
s(S'1021111110'
p3935
I1
tp3936
F-2.9184941211541373
s(S'0011101100'
p3937
I0
tp3938
F258.51734853731654
s(S'1111122200'
p3939
I1
tp3940
F-12.1
s(S'0200020000'
p3941
I0
tp3942
I-10
s(S'2000202110'
p3943
I0
tp3944
F-20.83621702663598
s(S'0001110010'
p3945
I1
tp3946
F398.843601019988
s(S'1200010000'
p3947
I1
tp3948
I-10
s(S'2100000020'
p3949
I1
tp3950
I-10
s(S'1121200000'
p3951
I1
tp3952
I-10
s(S'1212201000'
p3953
I0
tp3954
I-10
s(S'0022222200'
p3955
I0
tp3956
F157.78696050707822
s(S'0000002200'
p3957
I2
tp3958
I-10
s(S'1102100000'
p3959
I1
tp3960
F-12.1
s(S'2112111110'
p3961
I2
tp3962
I-10
s(S'0020002220'
p3963
I1
tp3964
I0
s(S'1111010010'
p3965
I0
tp3966
I0
s(S'1110002000'
p3967
I1
tp3968
F87.77462079223504
s(S'2200020210'
p3969
I2
tp3970
I-10
s(S'1111100010'
p3971
I0
tp3972
F111.31783749289212
s(S'2200022110'
p3973
I1
tp3974
F-62.18716559753088
s(S'0000121110'
p3975
I1
tp3976
F-11.535201926643174
s(S'2100000010'
p3977
I0
tp3978
F1478.6257004642982
s(S'0000001010'
p3979
I0
tp3980
F469.04580214157295
s(S'1100101100'
p3981
I1
tp3982
F322.0559393989333
s(S'0221000000'
p3983
I2
tp3984
F510.50700660345007
s(S'0011001110'
p3985
I1
tp3986
I-10
s(S'1122021210'
p3987
I1
tp3988
I-10
s(S'0001001010'
p3989
I2
tp3990
I22
s(S'0012222220'
p3991
I0
tp3992
F0.0
s(S'0101000000'
p3993
I1
tp3994
F695.4573424414773
s(S'1000000010'
p3995
I1
tp3996
F1501.6753471529264
s(S'1100111110'
p3997
I0
tp3998
F181.5414966056827
s(S'0110011110'
p3999
I0
tp4000
F294.13237418993776
s(S'1100010110'
p4001
I2
tp4002
I6
s(S'0200222220'
p4003
I1
tp4004
I0
s(S'0022110000'
p4005
I1
tp4006
I-10
s(S'2002220000'
p4007
I2
tp4008
I-10
s(S'0000020000'
p4009
I1
tp4010
F16.521705881174327
s(S'0201111010'
p4011
I2
tp4012
F34.584265225898534
s(S'0010000100'
p4013
I0
tp4014
I34
s(S'1111112220'
p4015
I0
tp4016
I-10
s(S'1000002120'
p4017
I2
tp4018
I0
s(S'0020000010'
p4019
I2
tp4020
F148.61510454107048
s(S'1000111110'
p4021
I2
tp4022
F123.68760802212716
s(S'1100001000'
p4023
I0
tp4024
F5970.322676754144
s(S'1111111110'
p4025
I1
tp4026
F-15.01137034094155
s(S'0110101110'
p4027
I0
tp4028
F148.10828231060216
s(S'0002220210'
p4029
I0
tp4030
I0
s(S'1100111000'
p4031
I2
tp4032
F299.12505533771184
s(S'0000100210'
p4033
I0
tp4034
I-10
s(S'0010001110'
p4035
I2
tp4036
F304.24468395607767
s(S'1111220220'
p4037
I1
tp4038
I-10
s(S'2220000010'
p4039
I2
tp4040
F501.01442629085096
s(S'0001000110'
p4041
I2
tp4042
I-10
s(S'1011010000'
p4043
I0
tp4044
F295.19634455723406
s(S'2200000110'
p4045
I2
tp4046
F686.5971270438554
s(S'1111112000'
p4047
I2
tp4048
I-10
s(S'0001101100'
p4049
I0
tp4050
F-3.5107888881923963
s(S'0200200000'
p4051
I2
tp4052
I-10
s(S'1112220000'
p4053
I2
tp4054
F-12.15928011158851
s(S'0000202210'
p4055
I2
tp4056
I-10
s(S'0000110000'
p4057
I1
tp4058
I-10
s(S'0021000110'
p4059
I1
tp4060
I-10
s(S'1110111100'
p4061
I2
tp4062
F167.23986353120216
s(S'0000020210'
p4063
I0
tp4064
F12.137308715530935
s(S'0022222110'
p4065
I2
tp4066
F234.30970961446712
s(S'1000001010'
p4067
I1
tp4068
I-10
s(S'1110111010'
p4069
I1
tp4070
F110.50863500850187
s(S'0200000000'
p4071
I1
tp4072
I-10
s(S'0020022110'
p4073
I0
tp4074
I-200
s(S'0002020200'
p4075
I0
tp4076
I-200
s(S'1100000010'
p4077
I0
tp4078
I-10
s(S'1111001200'
p4079
I2
tp4080
F2.17231
s(S'0111100100'
p4081
I1
tp4082
I-10
s(S'0000220000'
p4083
I1
tp4084
F-12.1
s(S'1200022110'
p4085
I1
tp4086
F4.4721543714100065
s(S'2011111110'
p4087
I0
tp4088
F55.812882842311964
s(S'1102200000'
p4089
I0
tp4090
I-10
s(S'0110000110'
p4091
I1
tp4092
F-14.011
s(S'2000001010'
p4093
I0
tp4094
I-10
s(S'0011101010'
p4095
I2
tp4096
F66.13512012204056
s(S'0112000110'
p4097
I1
tp4098
F-11.885819650856579
s(S'0011121110'
p4099
I0
tp4100
F-10.0
s(S'0012002120'
p4101
I0
tp4102
I-10
s(S'2022000000'
p4103
I0
tp4104
I-10
s(S'0222221210'
p4105
I1
tp4106
F119.99449440707262
s(S'0011011000'
p4107
I1
tp4108
F139.1564162938674
s(S'0000012000'
p4109
I2
tp4110
F156.82357609960812
s(S'1111122220'
p4111
I2
tp4112
F-5.1
s(S'0020002000'
p4113
I0
tp4114
I-10
s(S'2110011110'
p4115
I1
tp4116
I-5
s(S'0000020120'
p4117
I0
tp4118
I-10
s(S'2020111110'
p4119
I1
tp4120
I-5
s(S'2100000000'
p4121
I2
tp4122
F1930.1814785245688
s(S'0220221110'
p4123
I2
tp4124
I-10
s(S'1111010000'
p4125
I0
tp4126
F644.2810734072543
s(S'0022220000'
p4127
I1
tp4128
F-13.044792727076542
s(S'1002000000'
p4129
I1
tp4130
I-10
s(S'1222000000'
p4131
I1
tp4132
F5587.319673432432
s(S'0122002210'
p4133
I1
tp4134
I-10
s(S'0111001200'
p4135
I2
tp4136
F35.604220098323445
s(S'1000111000'
p4137
I1
tp4138
F130.3622855146981
s(S'0010222110'
p4139
I1
tp4140
I-10
s(S'0202222110'
p4141
I1
tp4142
I-105
s(S'0002002220'
p4143
I0
tp4144
I-10
s(S'1222121110'
p4145
I2
tp4146
I-10
s(S'0011001100'
p4147
I0
tp4148
F486.6566057401379
s(S'2200001110'
p4149
I0
tp4150
F721.2872736935818
s(S'2222000010'
p4151
I0
tp4152
I-10
s(S'1010100000'
p4153
I1
tp4154
F800.1447657697476
s(S'0222212110'
p4155
I2
tp4156
I-10
s(S'0001222210'
p4157
I2
tp4158
I0
s(S'1220200000'
p4159
I1
tp4160
F-9.414152834564554
s(S'1110111000'
p4161
I0
tp4162
F195.36803207731214
s(S'1200001110'
p4163
I1
tp4164
F-16.367350085749393
s(S'0000022200'
p4165
I0
tp4166
F239.60819429515897
s(S'0100000000'
p4167
I0
tp4168
I-10
s(S'0001200000'
p4169
I0
tp4170
F-12.1
s(S'2221211110'
p4171
I2
tp4172
I-10
s(S'0000222110'
p4173
I0
tp4174
F-19.62794004225137
s(S'1110010100'
p4175
I1
tp4176
F341.2155734024966
s(S'0200022210'
p4177
I0
tp4178
I-10
s(S'2221100000'
p4179
I2
tp4180
I-10
s(S'1111220000'
p4181
I0
tp4182
F-13.41089684342309
s(S'0022002020'
p4183
I1
tp4184
I0
s(S'1111120200'
p4185
I1
tp4186
I-10
s(S'0111112220'
p4187
I1
tp4188
I0
s(S'1000212110'
p4189
I2
tp4190
I-10
s(S'0022222000'
p4191
I1
tp4192
F33.99291309650121
s(S'1110101100'
p4193
I0
tp4194
F127.68884255004903
s(S'2002220000'
p4195
I1
tp4196
I-10
s(S'1111002100'
p4197
I0
tp4198
I-10
s(S'2221111000'
p4199
I2
tp4200
F39.37068873530306
s(S'0002202210'
p4201
I1
tp4202
I-10
s(S'0010000000'
p4203
I2
tp4204
F797.8057253933507
s(S'1111200000'
p4205
I2
tp4206
F-12.1
s(S'2222222210'
p4207
I0
tp4208
I-10
s(S'0012020120'
p4209
I2
tp4210
I-10
s(S'0111011010'
p4211
I1
tp4212
I11
s(S'0222221210'
p4213
I0
tp4214
F-12.1
s(S'1112222220'
p4215
I2
tp4216
F510.8838648830823
s(S'0000010110'
p4217
I0
tp4218
F194.0312506531148
s(S'0110011100'
p4219
I1
tp4220
F195.486397780507
s(S'2010001110'
p4221
I2
tp4222
I-10
s(S'2200111100'
p4223
I2
tp4224
I-10
s(S'0002210000'
p4225
I2
tp4226
F-0.29553768201045827
s(S'0000111110'
p4227
I2
tp4228
F14.176511907920144
s(S'1222221210'
p4229
I0
tp4230
I-10
s(S'1010111110'
p4231
I1
tp4232
F64.65685954167316
s(S'1110000100'
p4233
I2
tp4234
F27.11716912800675
s(S'1112022220'
p4235
I2
tp4236
F175.66791887096636
s(S'0000110100'
p4237
I1
tp4238
F722.618536794498
s(S'0111111110'
p4239
I0
tp4240
F70.92257201662822
s(S'1122021210'
p4241
I0
tp4242
F-10.0
s(S'1010000010'
p4243
I0
tp4244
I-10
s(S'0002200200'
p4245
I1
tp4246
I-10
s(S'0211111100'
p4247
I1
tp4248
F54.39751148650825
s(S'0222222200'
p4249
I0
tp4250
I-10
s(S'1202000020'
p4251
I0
tp4252
I0
s(S'0000002210'
p4253
I1
tp4254
F22.697944970920076
s(S'2200000010'
p4255
I2
tp4256
F1007.6401416123085
s(S'2222210000'
p4257
I0
tp4258
F-2.243602936521488
s(S'0210000000'
p4259
I1
tp4260
I-10
s(S'2000011110'
p4261
I1
tp4262
F-15.241361927042957
s(S'2222220200'
p4263
I2
tp4264
F-2.02
s(S'0001221120'
p4265
I0
tp4266
I-10
s(S'2000002000'
p4267
I2
tp4268
I-200
s(S'0022111110'
p4269
I2
tp4270
F-16.12
s(S'0002000000'
p4271
I2
tp4272
F-24.409753732086088
s(S'0212111110'
p4273
I2
tp4274
I2
s(S'0200221110'
p4275
I2
tp4276
F-72.9735489834012
s(S'1120111110'
p4277
I1
tp4278
F-11.093756146978166
s(S'2220100000'
p4279
I1
tp4280
I-10
s(S'0000211110'
p4281
I1
tp4282
F2.4675168335644955
s(S'0200011110'
p4283
I1
tp4284
F2692.3880494963023
s(S'0002020210'
p4285
I1
tp4286
I-10
s(S'2000002020'
p4287
I2
tp4288
F-1.512123789498391
s(S'1122222000'
p4289
I1
tp4290
F-14.832582649441306
s(S'0100001100'
p4291
I0
tp4292
I23
s(S'0000022110'
p4293
I1
tp4294
F-2.5379139698471223
s(S'0122022210'
p4295
I0
tp4296
I-10
s(S'2222220020'
p4297
I0
tp4298
F28.24301457335559
s(S'0000202110'
p4299
I0
tp4300
F-56.8827608033271
s(S'0120111110'
p4301
I1
tp4302
I-10
s(S'1111111000'
p4303
I1
tp4304
F25.001631360127156
s(S'2000020220'
p4305
I1
tp4306
I-10
s(S'0220002000'
p4307
I1
tp4308
I-10
s(S'0000022220'
p4309
I2
tp4310
F-12.1
s(S'2200022210'
p4311
I0
tp4312
F-56.55736730627859
s(S'2002000020'
p4313
I2
tp4314
I-10
s(S'1120222220'
p4315
I1
tp4316
F0.0
s(S'2222002110'
p4317
I1
tp4318
I0
s(S'1120000010'
p4319
I0
tp4320
I0
s(S'2002211110'
p4321
I0
tp4322
F60.80624234748077
s(S'0001121110'
p4323
I0
tp4324
I-10
s(S'2020000020'
p4325
I1
tp4326
I-10
s(S'1111000220'
p4327
I2
tp4328
I-10
s(S'0001121210'
p4329
I1
tp4330
I-10
s(S'0200020020'
p4331
I1
tp4332
I-10
s(S'0000220220'
p4333
I1
tp4334
I0
s(S'0112221110'
p4335
I2
tp4336
F23.9
s(S'0002002000'
p4337
I2
tp4338
F153.67324137362291
s(S'0112121110'
p4339
I1
tp4340
I-10
s(S'0000002010'
p4341
I0
tp4342
I-10
s(S'0221111110'
p4343
I2
tp4344
F25.556285771392393
s(S'2211001110'
p4345
I0
tp4346
I-10
s(S'0001000000'
p4347
I1
tp4348
F-9.265743849815738
s(S'0000222110'
p4349
I2
tp4350
F-54.8999459243915
s(S'0020022210'
p4351
I2
tp4352
I-10
s(S'0000001200'
p4353
I2
tp4354
I-10
s(S'1000001100'
p4355
I1
tp4356
I-10
s(S'1200020000'
p4357
I2
tp4358
I-10
s(S'1111012000'
p4359
I1
tp4360
I-10
s(S'2202211110'
p4361
I0
tp4362
I-10
s(S'0101111000'
p4363
I1
tp4364
I-10
s(S'0012000000'
p4365
I2
tp4366
F1112.542430156258
s(S'1122222210'
p4367
I0
tp4368
F-10.0
s(S'1011000010'
p4369
I1
tp4370
I-10
s(S'1111011010'
p4371
I0
tp4372
F49.937835036342605
s(S'2221111100'
p4373
I0
tp4374
F30.129209015388827
s(S'2000000000'
p4375
I0
tp4376
F-12.1
s(S'0000122220'
p4377
I2
tp4378
I-10
s(S'0010020220'
p4379
I2
tp4380
I0
s(S'0000002100'
p4381
I2
tp4382
I-10
s(S'0000020110'
p4383
I1
tp4384
I-10
s(S'0000221110'
p4385
I0
tp4386
F-18.427534226788474
s(S'2200000000'
p4387
I1
tp4388
F243.6469114796411
s(S'1202222000'
p4389
I1
tp4390
I-10
s(S'0100101100'
p4391
I1
tp4392
I9
s(S'2210000000'
p4393
I2
tp4394
I-10
s(S'0222222120'
p4395
I0
tp4396
I-10
s(S'2200002020'
p4397
I0
tp4398
F-36.116990946630246
s(S'1001111000'
p4399
I1
tp4400
F349.80310667495735
s(S'1101011110'
p4401
I0
tp4402
F148.38033342633685
s(S'0110010100'
p4403
I2
tp4404
I502
s(S'1120222200'
p4405
I2
tp4406
F-12.1
s(S'0111122000'
p4407
I1
tp4408
I0
s(S'0001011110'
p4409
I2
tp4410
I-10
s(S'2201000000'
p4411
I0
tp4412
I-10
s(S'0000002210'
p4413
I0
tp4414
I-10
s(S'1101100000'
p4415
I2
tp4416
F764.7750810637125
s(S'1000012000'
p4417
I1
tp4418
F15467.975868241407
s(S'0002022020'
p4419
I2
tp4420
F20.179098208449133
s(S'0000120010'
p4421
I1
tp4422
I-10
s(S'0000200000'
p4423
I1
tp4424
I-10
s(S'0221110000'
p4425
I1
tp4426
I-10
s(S'1001120000'
p4427
I2
tp4428
I-10
s(S'2001111110'
p4429
I1
tp4430
F106.91457996601181
s(S'1011100010'
p4431
I0
tp4432
I-10
s(S'1022220000'
p4433
I0
tp4434
I-10
s(S'0200020210'
p4435
I2
tp4436
F35.98261946302878
s(S'0010000220'
p4437
I2
tp4438
I0
s(S'0111000000'
p4439
I1
tp4440
F-2.8822699895089468
s(S'2000202210'
p4441
I0
tp4442
I-10
s(S'0222200000'
p4443
I0
tp4444
F40.10125051315896
s(S'1101010000'
p4445
I0
tp4446
F483.718149446275
s(S'0002001110'
p4447
I2
tp4448
I-10
s(S'0022222010'
p4449
I2
tp4450
I0
s(S'1112211110'
p4451
I1
tp4452
F-13.57
s(S'2222111000'
p4453
I0
tp4454
I0
s(S'2020000010'
p4455
I0
tp4456
I-10
s(S'1011111100'
p4457
I0
tp4458
I-10
s(S'1111211110'
p4459
I0
tp4460
I-10
s(S'0122221110'
p4461
I1
tp4462
I-10
s(S'1220011110'
p4463
I2
tp4464
F42.21738448265126
s(S'1111202000'
p4465
I0
tp4466
F-10.0
s(S'0111101110'
p4467
I0
tp4468
F133.28130913693795
s(S'0111221110'
p4469
I2
tp4470
I-10
s(S'0111000110'
p4471
I0
tp4472
F93.84980103458986
s(S'2222221100'
p4473
I1
tp4474
I-10
s(S'1111220020'
p4475
I0
tp4476
I-200
s(S'0000220210'
p4477
I0
tp4478
F94.25268945428432
s(S'0000021210'
p4479
I2
tp4480
F-12.27199
s(S'1110002100'
p4481
I1
tp4482
I5
s(S'0002222210'
p4483
I2
tp4484
F-10.0
s(S'0022000110'
p4485
I1
tp4486
I-10
s(S'0022200000'
p4487
I0
tp4488
F-38.767158924230785
s(S'0102221110'
p4489
I1
tp4490
I-10
s(S'2221100010'
p4491
I1
tp4492
I-10
s(S'0220000220'
p4493
I2
tp4494
I-10
s(S'1000100000'
p4495
I2
tp4496
F1593.544620047789
s(S'0101100000'
p4497
I2
tp4498
F741.6083494110452
s(S'2222221110'
p4499
I1
tp4500
F19.34161528695387
s(S'2220000110'
p4501
I0
tp4502
I-10
s(S'0000010000'
p4503
I0
tp4504
F-14.941723758765448
s(S'2221100110'
p4505
I2
tp4506
I-10
s(S'1120000210'
p4507
I2
tp4508
I-10
s(S'1111100100'
p4509
I2
tp4510
F480.88399502200303
s(S'2210000010'
p4511
I1
tp4512
I-10
s(S'0002202110'
p4513
I0
tp4514
I-10
s(S'0100111000'
p4515
I1
tp4516
I-10
s(S'0111101120'
p4517
I1
tp4518
F27.247933039932533
s(S'0001001110'
p4519
I0
tp4520
F140.65210405687301
s(S'0012000010'
p4521
I0
tp4522
F-8.61876531824608
s(S'0012212110'
p4523
I1
tp4524
I-10
s(S'0022220020'
p4525
I2
tp4526
F469.97301544770005
s(S'0002002210'
p4527
I2
tp4528
I-10
s(S'0202211110'
p4529
I0
tp4530
F-0.7283551407992874
s(S'0120212110'
p4531
I1
tp4532
I-10
s(S'2000000010'
p4533
I0
tp4534
I-10
s(S'2211112110'
p4535
I2
tp4536
I-10
s(S'1000000100'
p4537
I2
tp4538
F1026.4521602198342
s(S'1112222020'
p4539
I0
tp4540
I-10
s(S'0001000100'
p4541
I2
tp4542
I505
s(S'1121111000'
p4543
I0
tp4544
F16.59682442084075
s(S'1122010000'
p4545
I1
tp4546
I-10
s(S'1222021210'
p4547
I1
tp4548
I-10
s(S'1110000110'
p4549
I1
tp4550
F103.2518230115408
s(S'2002222220'
p4551
I1
tp4552
F-1.5999999999999996
s(S'0000020200'
p4553
I0
tp4554
F103.3052644030937
s(S'1000111010'
p4555
I2
tp4556
F276.6357422517948
s(S'1112111110'
p4557
I1
tp4558
F-14.129611056800798
s(S'0111120010'
p4559
I1
tp4560
I0
s(S'0000210000'
p4561
I2
tp4562
I-10
s(S'1111122000'
p4563
I1
tp4564
F-13.57
s(S'2000000100'
p4565
I2
tp4566
I-10
s(S'2100111010'
p4567
I2
tp4568
I9
s(S'0011111120'
p4569
I2
tp4570
I0
s(S'2222221000'
p4571
I1
tp4572
F-12.1
s(S'0122222210'
p4573
I1
tp4574
F199.96145126017853
s(S'1222222200'
p4575
I0
tp4576
I-10
s(S'0020000020'
p4577
I0
tp4578
I-10
s(S'1101000000'
p4579
I0
tp4580
F704.1664111266292
s(S'1120200020'
p4581
I0
tp4582
F-28.535008689287032
s(S'0000021110'
p4583
I0
tp4584
F53.50003982902032
s(S'0112111110'
p4585
I2
tp4586
F-12.1
s(S'0110000000'
p4587
I1
tp4588
F0.0
s(S'2111000000'
p4589
I2
tp4590
I-10
s(S'1200002120'
p4591
I2
tp4592
F11.31027897579
s(S'2201111110'
p4593
I1
tp4594
I-5
s(S'0020000000'
p4595
I0
tp4596
I-10
s(S'1002100000'
p4597
I1
tp4598
I-10
s(S'0222220000'
p4599
I2
tp4600
I-10
s(S'1222211110'
p4601
I1
tp4602
F-19.764774966246996
s(S'1220001110'
p4603
I0
tp4604
F-13.171818958507291
s(S'0211110010'
p4605
I0
tp4606
F58.416556679855724
s(S'1001110110'
p4607
I0
tp4608
F131.71586691233597
s(S'1121111110'
p4609
I0
tp4610
I-10
s(S'1120200000'
p4611
I0
tp4612
F268.80115049344397
s(S'2000000200'
p4613
I0
tp4614
F5.295805239701734
s(S'0020020210'
p4615
I0
tp4616
F-44.96218131011272
s(S'0022021110'
p4617
I0
tp4618
F-12.1
s(S'2211011110'
p4619
I1
tp4620
F148.6173492855951
s(S'0222211110'
p4621
I0
tp4622
I-10
s(S'1220000210'
p4623
I1
tp4624
I-10
s(S'0220211110'
p4625
I0
tp4626
I-10
s(S'0111122110'
p4627
I1
tp4628
F0.3961640092486738
s(S'2222222020'
p4629
I0
tp4630
F12.811330865820938
s(S'0222220220'
p4631
I0
tp4632
I-10
s(S'1101001010'
p4633
I0
tp4634
I502
s(S'1100000020'
p4635
I2
tp4636
F-10.0
s(S'1110110100'
p4637
I2
tp4638
F192.74231947917016
s(S'1121000000'
p4639
I2
tp4640
I-10
s(S'0000200010'
p4641
I0
tp4642
I-10
s(S'2022220000'
p4643
I2
tp4644
F-12.1
s(S'0022221110'
p4645
I1
tp4646
F-10.0
s(S'2100001110'
p4647
I2
tp4648
F913.1328545664852
s(S'2222000110'
p4649
I2
tp4650
I5
s(S'0000011010'
p4651
I0
tp4652
F289.58368547205095
s(S'2202222200'
p4653
I2
tp4654
I0
s(S'0000221210'
p4655
I2
tp4656
I-10
s(S'0000000100'
p4657
I2
tp4658
I-10
s(S'1222111110'
p4659
I2
tp4660
F3.6217475512959023
s(S'0111112210'
p4661
I1
tp4662
F0.9279136734302662
s(S'0001200010'
p4663
I0
tp4664
I-10
s(S'2111111100'
p4665
I2
tp4666
I-10
s(S'1110000200'
p4667
I2
tp4668
I-10
s(S'0200000210'
p4669
I0
tp4670
I-10
s(S'1001101110'
p4671
I1
tp4672
F22.141635497729055
s(S'2222222200'
p4673
I2
tp4674
F-11.639584013886001
s(S'0002202220'
p4675
I1
tp4676
I0
s(S'1021111110'
p4677
I2
tp4678
F14.957341474135498
s(S'0001011000'
p4679
I0
tp4680
F853.1704980002293
s(S'0100011110'
p4681
I2
tp4682
I-10
s(S'0002100000'
p4683
I1
tp4684
F928.3870554112802
s(S'2222222220'
p4685
I2
tp4686
F6.767617869112542
s(S'1111102000'
p4687
I0
tp4688
I-10
s(S'1102211110'
p4689
I2
tp4690
I-10
s(S'0002022020'
p4691
I1
tp4692
I0
s(S'2222221220'
p4693
I2
tp4694
I-10
s(S'0000011110'
p4695
I0
tp4696
F-23.554869705228164
s(S'1111100000'
p4697
I0
tp4698
F-20.307567054622744
s(S'1001222220'
p4699
I2
tp4700
F0.0
s(S'0011100000'
p4701
I2
tp4702
I-10
s(S'2222220000'
p4703
I0
tp4704
F106.760917115202
s(S'0000222200'
p4705
I1
tp4706
I-10
s(S'1111011110'
p4707
I2
tp4708
F89.90344130669811
s(S'2120021000'
p4709
I1
tp4710
I-10
s(S'0002001110'
p4711
I0
tp4712
I-10
s(S'1020000210'
p4713
I2
tp4714
I690
s(S'1022000000'
p4715
I1
tp4716
I-10
s(S'0000101110'
p4717
I2
tp4718
F111.77032596118192
s(S'0022220210'
p4719
I1
tp4720
F74.4407984343741
s(S'1001101000'
p4721
I1
tp4722
F148.13264550047742
s(S'0000022000'
p4723
I0
tp4724
F-12.1
s(S'1021111110'
p4725
I0
tp4726
I-10
s(S'2101111110'
p4727
I1
tp4728
I-5
s(S'2222112110'
p4729
I0
tp4730
I-10
s(S'1111122200'
p4731
I0
tp4732
F1277.4569935756303
s(S'0200020000'
p4733
I1
tp4734
I-10
s(S'2200002220'
p4735
I2
tp4736
F7.1305080599870045
s(S'1111112020'
p4737
I1
tp4738
F-1.2690004337091254
s(S'2000202110'
p4739
I1
tp4740
F-70.31014798980169
s(S'0111111000'
p4741
I0
tp4742
F-9.454
s(S'0011111110'
p4743
I2
tp4744
F-11.653799742719926
s(S'2100000020'
p4745
I0
tp4746
I-10
s(S'1121200000'
p4747
I0
tp4748
F-3.0
s(S'0022222200'
p4749
I1
tp4750
F-14.011
s(S'1111121110'
p4751
I2
tp4752
F0.0
s(S'0100001110'
p4753
I2
tp4754
I-10
s(S'0111010110'
p4755
I0
tp4756
I0
s(S'1202000000'
p4757
I1
tp4758
F53.68693784261847
s(S'1102100000'
p4759
I0
tp4760
I-10
s(S'0200000000'
p4761
I0
tp4762
I-10
s(S'2220222110'
p4763
I1
tp4764
I-10
s(S'1111010010'
p4765
I1
tp4766
F436.5408297638641
s(S'0110000100'
p4767
I1
tp4768
I6
s(S'1110002000'
p4769
I0
tp4770
F-13.57
s(S'1100220000'
p4771
I0
tp4772
F11.700000000000001
s(S'2200020210'
p4773
I1
tp4774
F9.5361870131739
s(S'0011111000'
p4775
I0
tp4776
F124.06011825703091
s(S'1122021210'
p4777
I2
tp4778
I-10
s(S'2222220210'
p4779
I1
tp4780
I-10
s(S'2122000020'
p4781
I2
tp4782
I-10
s(S'1200021210'
p4783
I1
tp4784
I-10
s(S'0110011110'
p4785
I1
tp4786
I-10
s(S'2000022110'
p4787
I0
tp4788
F14.887308728182859
s(S'1202200000'
p4789
I1
tp4790
F-32.24579518100511
s(S'0002002000'
p4791
I0
tp4792
I-10
s(S'0000220000'
p4793
I0
tp4794
F-10.0
s(S'0110100110'
p4795
I0
tp4796
F162.8628951527835
s(S'0022000010'
p4797
I2
tp4798
F36.000377780493096
s(S'0000020000'
p4799
I2
tp4800
F-56.90465044592623
s(S'1111112220'
p4801
I1
tp4802
F-32.83819370741232
s(S'0012002020'
p4803
I1
tp4804
F0.0
s(S'2111111110'
p4805
I0
tp4806
F36.931188803033855
s(S'0002211110'
p4807
I0
tp4808
F-14.138130301944189
s(S'1001100110'
p4809
I0
tp4810
I15
s(S'1022210000'
p4811
I0
tp4812
I-10
s(S'1111111110'
p4813
I0
tp4814
F30.271715983616282
s(S'0000002120'
p4815
I1
tp4816
I-10
s(S'0100100000'
p4817
I1
tp4818
F764.9783133412308
s(S'2022222220'
p4819
I1
tp4820
I0
s(S'2221111110'
p4821
I2
tp4822
F-14.011
s(S'1111120020'
p4823
I0
tp4824
I-10
s(S'1110022000'
p4825
I2
tp4826
I-10
s(S'0001111110'
p4827
I0
tp4828
F14.253034903450978
s(S'0022001110'
p4829
I2
tp4830
F-5.5
s(S'2220002020'
p4831
I2
tp4832
I0
s(S'1222221000'
p4833
I2
tp4834
I18660
s(S'2100000110'
p4835
I1
tp4836
F2680.3636212161027
s(S'0001000110'
p4837
I1
tp4838
F418.58588499153296
s(S'1111101010'
p4839
I0
tp4840
F281.1509544775623
s(S'0220000010'
p4841
I2
tp4842
F1078.4726027240627
s(S'2211000110'
p4843
I2
tp4844
I-10
s(S'0001101100'
p4845
I1
tp4846
I-10
s(S'1112220000'
p4847
I1
tp4848
F-13.57
s(S'0000110000'
p4849
I2
tp4850
F905.8628921338764
s(S'0021000110'
p4851
I0
tp4852
I-10
s(S'1220221110'
p4853
I1
tp4854
I-10
s(S'2221001110'
p4855
I0
tp4856
F-12.1
s(S'1100221000'
p4857
I2
tp4858
I-10
s(S'2222211000'
p4859
I0
tp4860
I-10
s(S'1000001010'
p4861
I0
tp4862
I-10
s(S'0000002110'
p4863
I2
tp4864
F-10.0
s(S'0200000000'
p4865
I2
tp4866
F233.46790189275808
s(S'0020022110'
p4867
I1
tp4868
I-10
s(S'0111100100'
p4869
I0
tp4870
I-10
s(S'1200022110'
p4871
I0
tp4872
F-12.303747532908272
s(S'0002200210'
p4873
I1
tp4874
F0.0
s(S'1102200000'
p4875
I1
tp4876
F9788.344673077569
s(S'1111220020'
p4877
I2
tp4878
I0
s(S'2100111100'
p4879
I2
tp4880
F1.2000000000000002
s(S'0222222000'
p4881
I2
tp4882
I-10
s(S'0112000110'
p4883
I2
tp4884
F-12.1
s(S'1002000000'
p4885
I0
tp4886
F-10.0
s(S'0200002220'
p4887
I0
tp4888
F-3.0
s(S'0122222220'
p4889
I0
tp4890
I-10
s(S'1122002100'
p4891
I1
tp4892
I-10
s(S'2000022020'
p4893
I2
tp4894
F84.15924380962548
s(S'0000012000'
p4895
I1
tp4896
I-10
s(S'2020000000'
p4897
I2
tp4898
I-10
s(S'1111122220'
p4899
I1
tp4900
F-0.7197448116852886
s(S'0020002000'
p4901
I1
tp4902
I-10
s(S'1111101110'
p4903
I1
tp4904
F151.1993031653611
s(S'1100110100'
p4905
I2
tp4906
F93.94615987741211
s(S'2100000000'
p4907
I1
tp4908
I-10
s(S'0012222110'
p4909
I0
tp4910
I-10
s(S'1000000020'
p4911
I1
tp4912
I-10
s(S'0112211110'
p4913
I1
tp4914
I-10
s(S'0200002000'
p4915
I2
tp4916
I-10
s(S'2220011110'
p4917
I1
tp4918
I-5
s(S'2011111010'
p4919
I1
tp4920
F108.8817099835059
s(S'0122002210'
p4921
I2
tp4922
I-10
s(S'0211111110'
p4923
I1
tp4924
F22.454372572250797
s(S'0011011110'
p4925
I0
tp4926
F-12.1
s(S'2000022120'
p4927
I2
tp4928
I0
s(S'2220221110'
p4929
I1
tp4930
F-9.706
s(S'1111000000'
p4931
I2
tp4932
F66.0856145115204
s(S'1111202000'
p4933
I1
tp4934
I-10
s(S'0022020210'
p4935
I2
tp4936
F21.03392584604485
s(S'0111220000'
p4937
I0
tp4938
I-10
s(S'0011221210'
p4939
I1
tp4940
I-10
s(S'0222111110'
p4941
I1
tp4942
F-9.688407442771513
s(S'0111122010'
p4943
I2
tp4944
F0.057531776720745234
s(S'0022222020'
p4945
I2
tp4946
F7.847045967736431
s(S'0000022200'
p4947
I1
tp4948
I-10
s(S'0022200000'
p4949
I2
tp4950
F12.04749702092516
s(S'0020000000'
p4951
I1
tp4952
F62.016025798374756
s(S'0021111010'
p4953
I2
tp4954
I0
s(S'1120200000'
p4955
I1
tp4956
F-11.343174012416448
s(S'0011000000'
p4957
I0
tp4958
F821.493662347744
s(S'1111220000'
p4959
I1
tp4960
F-14.011
s(S'2211111000'
p4961
I1
tp4962
F38.09755436152391
s(S'0111112220'
p4963
I0
tp4964
I0
s(S'2110011110'
p4965
I0
tp4966
I2
s(S'0022222000'
p4967
I2
tp4968
F-45.1
s(S'0001000020'
p4969
I1
tp4970
F81.19203518840612
s(S'0000021000'
p4971
I2
tp4972
I-10
s(S'0002202210'
p4973
I0
tp4974
F-3.0
s(S'0222000220'
p4975
I2
tp4976
I0
s(S'0010000000'
p4977
I1
tp4978
I-10
s(S'0011101120'
p4979
I2
tp4980
F20.867581200322412
s(S'1100001100'
p4981
I0
tp4982
I-10
s(S'2022222220'
p4983
I0
tp4984
F40.52374078014043
s(S'0000002120'
p4985
I0
tp4986
I-10
s(S'0012000110'
p4987
I0
tp4988
F-12.1
s(S'0100110110'
p4989
I2
tp4990
F31.340213796823246
s(S'1111011100'
p4991
I1
tp4992
F39.82416608062006
s(S'0000122110'
p4993
I2
tp4994
I-10
s(S'2222210000'
p4995
I1
tp4996
F-12.1
s(S'0022002210'
p4997
I1
tp4998
I-10
s(S'1010001110'
p4999
I2
tp5000
F68.65050523820673
s(S'2220221110'
p5001
I2
tp5002
F-11.469999999999999
s(S'0220022210'
p5003
I0
tp5004
I-10
s(S'1101000010'
p5005
I2
tp5006
I505
s(S'1000110000'
p5007
I2
tp5008
F612.9975817576958
s(S'0220000000'
p5009
I0
tp5010
I-105
s(S'0000111110'
p5011
I1
tp5012
F-19.403110319441883
s(S'2211111000'
p5013
I0
tp5014
I-10
s(S'0200001110'
p5015
I2
tp5016
F-19.312413417160222
s(S'1010111110'
p5017
I0
tp5018
I-10
s(S'2022111110'
p5019
I0
tp5020
F56.9155761731472
s(S'1112022220'
p5021
I1
tp5022
F0.0
s(S'0000110100'
p5023
I0
tp5024
I-10
s(S'0111111110'
p5025
I1
tp5026
F-13.195151866918552
s(S'0100100010'
p5027
I0
tp5028
I502
s(S'0111000100'
p5029
I2
tp5030
F63.42814527172577
s(S'2222221210'
p5031
I0
tp5032
I-10
s(S'1102111110'
p5033
I2
tp5034
I-10
s(S'0000222020'
p5035
I0
tp5036
I-10
s(S'0022220000'
p5037
I0
tp5038
F9.4912328437858
s(S'2000000110'
p5039
I2
tp5040
I-10
s(S'0222222200'
p5041
I1
tp5042
I-10
s(S'2200002020'
p5043
I1
tp5044
F-56.78169310807105
s(S'1122020200'
p5045
I2
tp5046
I0
s(S'1110001110'
p5047
I1
tp5048
F243.21664201199246
s(S'2200000010'
p5049
I1
tp5050
I-10
s(S'1100110110'
p5051
I0
tp5052
I2
s(S'0210000000'
p5053
I0
tp5054
I-10
s(S'2000011110'
p5055
I2
tp5056
F-15.407573335258006
s(S'1120221110'
p5057
I0
tp5058
I8
s(S'0002000020'
p5059
I0
tp5060
I0
s(S'0200221110'
p5061
I1
tp5062
F2.1096549679792957
s(S'0002200020'
p5063
I0
tp5064
I-10
s(S'1122200000'
p5065
I0
tp5066
I-10
s(S'1120111110'
p5067
I0
tp5068
F477.2968240235484
s(S'0220002020'
p5069
I2
tp5070
I2
s(S'2220100000'
p5071
I0
tp5072
I-10
s(S'0011110000'
p5073
I0
tp5074
F309.41674337409967
s(S'2221000110'
p5075
I1
tp5076
I-10
s(S'1000000000'
p5077
I2
tp5078
F173.6278192110013
s(S'0200011110'
p5079
I2
tp5080
I-10
s(S'0002020210'
p5081
I0
tp5082
I-10
s(S'0102121110'
p5083
I1
tp5084
I-10
s(S'2001110110'
p5085
I2
tp5086
I0
s(S'0000022110'
p5087
I2
tp5088
F-14.087704631211574
s(S'0122022210'
p5089
I1
tp5090
I0
s(S'1200021000'
p5091
I2
tp5092
I-10
s(S'2222220020'
p5093
I1
tp5094
I-10
s(S'0000022020'
p5095
I0
tp5096
F172.24839049304853
s(S'0002000200'
p5097
I2
tp5098
F25.614200520803738
s(S'0000221110'
p5099
I1
tp5100
F-2.662390497820157
s(S'0000111100'
p5101
I0
tp5102
F-1.8773478181833845
s(S'1212021000'
p5103
I2
tp5104
I-10
s(S'1120222220'
p5105
I2
tp5106
F0.0
s(S'1100021000'
p5107
I2
tp5108
I-10
s(S'0010000020'
p5109
I1
tp5110
I-10
s(S'2002211110'
p5111
I1
tp5112
I-10
s(S'2201110110'
p5113
I2
tp5114
F36.10530886123449
s(S'1200220000'
p5115
I0
tp5116
I-10
s(S'0000120110'
p5117
I0
tp5118
I-10
s(S'0222222010'
p5119
I0
tp5120
I0
s(S'0000010200'
p5121
I0
tp5122
I-10
s(S'1122222110'
p5123
I0
tp5124
I-10
s(S'0000212110'
p5125
I2
tp5126
F-13.138231600000001
s(S'1111112220'
p5127
I2
tp5128
F211.92564613006502
s(S'0202222110'
p5129
I0
tp5130
I-10
s(S'0001000000'
p5131
I0
tp5132
I-10
s(S'0001100100'
p5133
I2
tp5134
F756.7784075388538
s(S'1000001100'
p5135
I0
tp5136
F192.9253340204807
s(S'0100000100'
p5137
I0
tp5138
I-10
s(S'2202211110'
p5139
I1
tp5140
I-10
s(S'0000200110'
p5141
I2
tp5142
F11.466718986049216
s(S'0011010110'
p5143
I1
tp5144
F111.31744713838043
s(S'1011011100'
p5145
I0
tp5146
F78.07276806918289
s(S'2220021110'
p5147
I2
tp5148
I-10
s(S'0022220220'
p5149
I1
tp5150
I0
s(S'0111112110'
p5151
I1
tp5152
I-10
s(S'2000000000'
p5153
I1
tp5154
F34.608812199466314
s(S'0000122220'
p5155
I1
tp5156
I-10
s(S'0000002100'
p5157
I1
tp5158
F55.826529921837704
s(S'1201100000'
p5159
I0
tp5160
I-10
s(S'0000000220'
p5161
I0
tp5162
I-10
s(S'1122000000'
p5163
I0
tp5164
I-10
s(S'2221101110'
p5165
I2
tp5166
F-13.57
s(S'2210000000'
p5167
I1
tp5168
I-10
s(S'2202222000'
p5169
I1
tp5170
I-10
s(S'0000200020'
p5171
I2
tp5172
F17.70274655083311
s(S'1010011000'
p5173
I0
tp5174
F209.46539132192885
s.